
prom.out:     file format elf32-sparc

Disassembly of section .text:

00000000 <_start_svt_real>:
       0:	8d 48 00 00 	rd  %psr, %g6
       4:	8f 58 00 00 	rd  %tbr, %g7
       8:	8f 31 e0 04 	srl  %g7, 4, %g7
       c:	80 89 e0 ff 	btst  0xff, %g7
      10:	12 80 00 04 	bne  20 <_start_svt_real+0x20>
      14:	01 00 00 00 	nop 
      18:	8c 10 20 e0 	mov  0xe0, %g6	! e0 <_prom_hardreset_svt+0x28>
      1c:	81 98 00 00 	mov  %g0, %tbr
      20:	81 89 80 00 	mov  %g6, %psr
      24:	01 00 00 00 	nop 
      28:	01 00 00 00 	nop 
      2c:	01 00 00 00 	nop 

00000030 <_start_svt_disp>:
      30:	a7 58 00 00 	rd  %tbr, %l3
      34:	a1 48 00 00 	rd  %psr, %l0
      38:	a6 0c ef f0 	and  %l3, 0xff0, %l3
      3c:	a7 34 e0 04 	srl  %l3, 4, %l3
      40:	2b 00 00 64 	sethi  %hi(0x19000), %l5
      44:	aa 15 63 00 	or  %l5, 0x300, %l5	! 19300 <__DTOR_END__>
      48:	ac 10 00 13 	mov  %l3, %l6
      4c:	e8 05 40 00 	ld  [ %l5 ], %l4
      50:	80 a5 00 16 	cmp  %l4, %l6
      54:	34 80 00 07 	bg,a   70 <_start_svt_disp+0x40>
      58:	aa 05 60 0c 	add  %l5, 0xc, %l5
      5c:	e6 05 60 04 	ld  [ %l5 + 4 ], %l3
      60:	80 a4 c0 16 	cmp  %l3, %l6
      64:	36 80 00 13 	bge,a   b0 <_start_svt_disp+0x80>
      68:	e6 05 60 08 	ld  [ %l5 + 8 ], %l3
      6c:	aa 05 60 0c 	add  %l5, 0xc, %l5
      70:	e6 05 40 00 	ld  [ %l5 ], %l3
      74:	a8 94 e0 00 	orcc  %l3, 0, %l4
      78:	12 bf ff f7 	bne  54 <_start_svt_disp+0x24>
      7c:	80 a5 00 16 	cmp  %l4, %l6
      80:	e6 05 60 04 	ld  [ %l5 + 4 ], %l3
      84:	80 a4 e0 00 	cmp  %l3, 0
      88:	12 bf ff f3 	bne  54 <_start_svt_disp+0x24>
      8c:	80 a5 00 16 	cmp  %l4, %l6
      90:	e6 05 60 08 	ld  [ %l5 + 8 ], %l3
      94:	80 a4 e0 00 	cmp  %l3, 0
      98:	12 bf ff ef 	bne  54 <_start_svt_disp+0x24>
      9c:	80 a5 00 16 	cmp  %l4, %l6
      a0:	91 d0 20 00 	ta  0
      a4:	01 00 00 00 	nop 
      a8:	01 00 00 00 	nop 
      ac:	01 00 00 00 	nop 
      b0:	81 c4 c0 00 	jmp  %l3
      b4:	01 00 00 00 	nop 

000000b8 <_prom_hardreset_svt>:
      b8:	a7 48 00 00 	rd  %psr, %l3
      bc:	8b 34 e0 18 	srl  %l3, 0x18, %g5
      c0:	8a 09 60 03 	and  %g5, 3, %g5
      c4:	80 a1 60 03 	cmp  %g5, 3
      c8:	12 80 00 11 	bne  10c <_prom_hardreset_svt+0x54>
      cc:	01 00 00 00 	nop 
      d0:	8b 44 40 00 	rd  %asr17, %g5
      d4:	03 00 00 08 	sethi  %hi(0x2000), %g1
      d8:	8a 11 40 01 	or  %g5, %g1, %g5
      dc:	a3 81 40 00 	mov  %g5, %asr17
      e0:	01 00 00 00 	nop 
      e4:	01 00 00 00 	nop 
      e8:	01 00 00 00 	nop 
      ec:	8b 44 40 00 	rd  %asr17, %g5
      f0:	80 89 40 01 	btst  %g5, %g1
      f4:	02 80 00 06 	be  10c <_prom_hardreset_svt+0x54>
      f8:	01 00 00 00 	nop 
      fc:	27 00 00 00 	sethi  %hi(0), %l3
     100:	a6 14 e1 14 	or  %l3, 0x114, %l3	! 114 <_prom_hardreset_init>
     104:	81 c4 c0 00 	jmp  %l3
     108:	01 00 00 00 	nop 
     10c:	91 d0 20 00 	ta  0
     110:	01 00 00 00 	nop 

00000114 <_prom_hardreset_init>:
     114:	0f 00 00 03 	sethi  %hi(0xc00), %g7
     118:	8e 11 e1 84 	or  %g7, 0x184, %g7	! d84 <_prom_crt_start>

0000011c <_prom_hardreset_init_ret>:
     11c:	82 10 20 e0 	mov  0xe0, %g1
     120:	81 88 40 00 	mov  %g1, %psr
     124:	81 98 00 00 	mov  %g0, %tbr
     128:	81 90 00 00 	mov  %g0, %wim
     12c:	81 d8 20 00 	flush  %g0
     130:	82 10 00 00 	mov  %g0, %g1
     134:	84 10 00 00 	mov  %g0, %g2
     138:	86 10 00 00 	mov  %g0, %g3
     13c:	88 10 00 00 	mov  %g0, %g4
     140:	8a 10 00 00 	mov  %g0, %g5
     144:	8c 10 00 00 	mov  %g0, %g6
     148:	a0 10 00 00 	mov  %g0, %l0
     14c:	a6 10 00 00 	mov  %g0, %l3
     150:	a7 48 00 00 	rd  %psr, %l3
     154:	8b 34 e0 18 	srl  %l3, 0x18, %g5
     158:	8a 09 60 03 	and  %g5, 3, %g5
     15c:	80 a1 60 03 	cmp  %g5, 3
     160:	12 80 00 04 	bne  170 <_prom_hardreset_init_ret+0x54>
     164:	01 00 00 00 	nop 
     168:	8b 44 40 00 	rd  %asr17, %g5
     16c:	10 80 00 0b 	b  198 <_prom_hardreset_init_ret+0x7c>
     170:	21 00 00 04 	sethi  %hi(0x1000), %l0
     174:	a0 14 20 ec 	or  %l0, 0xec, %l0	! 10ec <_iserc32>
     178:	e0 04 00 00 	ld  [ %l0 ], %l0
     17c:	80 a4 00 00 	cmp  %l0, %g0
     180:	32 80 00 06 	bne,a   198 <_prom_hardreset_init_ret+0x7c>
     184:	8a 10 20 07 	mov  7, %g5
     188:	21 20 00 00 	sethi  %hi(0x80000000), %l0
     18c:	a0 14 20 00 	mov  %l0, %l0	! 80000000 <LEON_REG>
     190:	e6 04 20 24 	ld  [ %l0 + 0x24 ], %l3
     194:	8b 34 e0 14 	srl  %l3, 0x14, %g5
     198:	8a 09 60 1f 	and  %g5, 0x1f, %g5
     19c:	8a 01 60 01 	inc  %g5
     1a0:	84 10 00 05 	mov  %g5, %g2

000001a4 <wl0>:
     1a4:	b0 10 00 00 	mov  %g0, %i0
     1a8:	b2 10 00 00 	mov  %g0, %i1
     1ac:	b4 10 00 00 	mov  %g0, %i2
     1b0:	b6 10 00 00 	mov  %g0, %i3
     1b4:	b8 10 00 00 	mov  %g0, %i4
     1b8:	ba 10 00 00 	mov  %g0, %i5
     1bc:	bc 10 00 00 	mov  %g0, %fp
     1c0:	be 10 00 00 	mov  %g0, %i7
     1c4:	a0 10 00 00 	mov  %g0, %l0
     1c8:	a2 10 00 00 	mov  %g0, %l1
     1cc:	a4 10 00 00 	mov  %g0, %l2
     1d0:	a6 10 00 00 	mov  %g0, %l3
     1d4:	a8 10 00 00 	mov  %g0, %l4
     1d8:	aa 10 00 00 	mov  %g0, %l5
     1dc:	ac 10 00 00 	mov  %g0, %l6
     1e0:	ae 10 00 00 	mov  %g0, %l7
     1e4:	81 e0 00 00 	save 
     1e8:	84 a0 a0 01 	deccc  %g2
     1ec:	12 bf ff ee 	bne  1a4 <wl0>
     1f0:	01 00 00 00 	nop 
     1f4:	81 88 20 e0 	wr  %g0, 0xe0, %psr
     1f8:	81 90 00 00 	mov  %g0, %wim
     1fc:	8b 48 00 00 	rd  %psr, %g5
     200:	8b 31 60 18 	srl  %g5, 0x18, %g5
     204:	8a 09 60 03 	and  %g5, 3, %g5
     208:	80 a1 60 03 	cmp  %g5, 3
     20c:	12 80 00 07 	bne  228 <wl0+0x84>
     210:	01 00 00 00 	nop 
     214:	8b 44 40 00 	rd  %asr17, %g5
     218:	8b 31 60 1c 	srl  %g5, 0x1c, %g5
     21c:	80 a1 40 00 	cmp  %g5, %g0
     220:	12 80 00 0b 	bne  24c <sysini0>
     224:	01 00 00 00 	nop 
     228:	05 00 00 04 	sethi  %hi(0x1000), %g2
     22c:	84 10 a1 60 	or  %g2, 0x160, %g2	! 1160 <noinit>
     230:	c4 00 80 00 	ld  [ %g2 ], %g2
     234:	80 a0 80 00 	cmp  %g2, %g0
     238:	12 80 00 05 	bne  24c <sysini0>
     23c:	01 00 00 00 	nop 
     240:	40 00 00 b7 	call  51c <_prom_registers_init>
     244:	01 00 00 00 	nop 
     248:	81 80 00 00 	mov  %g0, %y

0000024c <sysini0>:
     24c:	81 88 20 e0 	wr  %g0, 0xe0, %psr
     250:	86 10 20 02 	mov  2, %g3
     254:	81 90 c0 00 	mov  %g3, %wim

00000258 <sysini>:
     258:	8b 48 00 00 	rd  %psr, %g5
     25c:	8b 31 60 18 	srl  %g5, 0x18, %g5
     260:	8a 09 60 03 	and  %g5, 3, %g5
     264:	80 a1 60 03 	cmp  %g5, 3
     268:	32 80 00 1c 	bne,a   2d8 <mastergo>
     26c:	8a 10 00 00 	mov  %g0, %g5
     270:	8b 44 40 00 	rd  %asr17, %g5
     274:	8b 31 60 1c 	srl  %g5, 0x1c, %g5
     278:	80 a1 40 00 	cmp  %g5, %g0
     27c:	02 80 00 17 	be  2d8 <mastergo>
     280:	01 00 00 00 	nop 
     284:	8b 29 60 02 	sll  %g5, 2, %g5
     288:	0d 00 00 04 	sethi  %hi(0x1000), %g6
     28c:	8c 11 a1 18 	or  %g6, 0x118, %g6	! 1118 <_mp>
     290:	cc 01 80 00 	ld  [ %g6 ], %g6
     294:	80 a1 a0 00 	cmp  %g6, 0
     298:	12 80 00 03 	bne  2a4 <sysini_entry>
     29c:	01 00 00 00 	nop 
     2a0:	8a 10 00 00 	mov  %g0, %g5

000002a4 <sysini_entry>:
     2a4:	0d 00 00 04 	sethi  %hi(0x1000), %g6
     2a8:	8c 11 a1 74 	or  %g6, 0x174, %g6	! 1174 <_entry>
     2ac:	cc 01 80 05 	ld  [ %g6 + %g5 ], %g6
     2b0:	80 a0 00 06 	cmp  %g0, %g6
     2b4:	32 80 00 2a 	bne,a   35c <slavego>
     2b8:	8e 10 00 06 	mov  %g6, %g7
     2bc:	05 00 00 04 	sethi  %hi(0x1000), %g2
     2c0:	84 10 a0 f8 	or  %g2, 0xf8, %g2	! 10f8 <_sparcleon0>
     2c4:	c4 00 80 00 	ld  [ %g2 ], %g2
     2c8:	80 a0 00 02 	cmp  %g0, %g2
     2cc:	32 80 00 24 	bne,a   35c <slavego>
     2d0:	8e 10 00 06 	mov  %g6, %g7
     2d4:	30 80 00 22 	b,a   35c <slavego>

000002d8 <mastergo>:
     2d8:	21 00 00 04 	sethi  %hi(0x1000), %l0
     2dc:	a0 14 20 f0 	or  %l0, 0xf0, %l0	! 10f0 <_doedac>
     2e0:	e0 04 00 00 	ld  [ %l0 ], %l0
     2e4:	80 a0 00 10 	cmp  %g0, %l0
     2e8:	02 80 00 1b 	be  354 <noedac>
     2ec:	01 00 00 00 	nop 
     2f0:	40 00 00 87 	call  50c <_prom_ft>
     2f4:	01 00 00 00 	nop 
     2f8:	82 10 00 00 	mov  %g0, %g1
     2fc:	05 00 00 04 	sethi  %hi(0x1000), %g2
     300:	84 10 a1 64 	or  %g2, 0x164, %g2	! 1164 <_clean_ram0>
     304:	c4 00 80 00 	ld  [ %g2 ], %g2
     308:	07 00 00 04 	sethi  %hi(0x1000), %g3
     30c:	86 10 e1 68 	or  %g3, 0x168, %g3	! 1168 <_clean_ram0_size>
     310:	c6 00 c0 00 	ld  [ %g3 ], %g3
     314:	80 a0 00 03 	cmp  %g0, %g3
     318:	02 80 00 04 	be  328 <mastergo+0x50>
     31c:	86 a0 e0 08 	subcc  %g3, 8, %g3
     320:	36 bf ff ff 	bge,a   31c <mastergo+0x44>
     324:	c0 38 80 03 	std  %g0, [ %g2 + %g3 ]
     328:	05 00 00 04 	sethi  %hi(0x1000), %g2
     32c:	84 10 a1 6c 	or  %g2, 0x16c, %g2	! 116c <_clean_ram1>
     330:	c4 00 80 00 	ld  [ %g2 ], %g2
     334:	07 00 00 04 	sethi  %hi(0x1000), %g3
     338:	86 10 e1 70 	or  %g3, 0x170, %g3	! 1170 <_clean_ram1_size>
     33c:	c6 00 c0 00 	ld  [ %g3 ], %g3
     340:	80 a0 00 03 	cmp  %g0, %g3
     344:	02 80 00 04 	be  354 <noedac>
     348:	86 a0 e0 08 	subcc  %g3, 8, %g3
     34c:	36 bf ff ff 	bge,a   348 <mastergo+0x70>
     350:	c0 38 80 03 	std  %g0, [ %g2 + %g3 ]

00000354 <noedac>:
     354:	40 00 03 5c 	call  10c4 <bdinit1>
     358:	01 00 00 00 	nop 

0000035c <slavego>:
     35c:	05 00 00 04 	sethi  %hi(0x1000), %g2
     360:	84 10 a1 7c 	or  %g2, 0x17c, %g2	! 117c <_stack>
     364:	fc 00 80 05 	ld  [ %g2 + %g5 ], %fp
     368:	bc 2f a0 0f 	andn  %fp, 0xf, %fp
     36c:	9c 27 a0 40 	sub  %fp, 0x40, %sp
     370:	9e 10 00 07 	mov  %g7, %o7
     374:	81 c3 c0 00 	jmp  %o7
     378:	01 00 00 00 	nop 

0000037c <_prom_getpsr>:
     37c:	81 c3 e0 08 	retl 
     380:	91 48 00 00 	rd  %psr, %o0

00000384 <_prom_window_overflow>:
     384:	a7 50 00 00 	rd  %wim, %l3
     388:	ae 10 00 01 	mov  %g1, %l7
     38c:	83 34 e0 01 	srl  %l3, 1, %g1
     390:	a9 48 00 00 	rd  %psr, %l4
     394:	a9 35 20 18 	srl  %l4, 0x18, %l4
     398:	a8 0d 20 03 	and  %l4, 3, %l4
     39c:	80 a5 20 03 	cmp  %l4, 3
     3a0:	12 80 00 04 	bne  3b0 <_prom_window_overflow+0x2c>
     3a4:	01 00 00 00 	nop 
     3a8:	a9 44 40 00 	rd  %asr17, %l4
     3ac:	10 80 00 0b 	b  3d8 <_prom_window_overflow+0x54>
     3b0:	29 00 00 04 	sethi  %hi(0x1000), %l4
     3b4:	a8 15 20 ec 	or  %l4, 0xec, %l4	! 10ec <_iserc32>
     3b8:	e8 05 00 00 	ld  [ %l4 ], %l4
     3bc:	80 a5 00 00 	cmp  %l4, %g0
     3c0:	22 80 00 06 	be,a   3d8 <_prom_window_overflow+0x54>
     3c4:	a8 10 20 07 	mov  7, %l4
     3c8:	29 20 00 00 	sethi  %hi(0x80000000), %l4
     3cc:	a8 15 20 00 	mov  %l4, %l4	! 80000000 <LEON_REG>
     3d0:	e8 05 20 24 	ld  [ %l4 + 0x24 ], %l4
     3d4:	a9 35 20 14 	srl  %l4, 0x14, %l4
     3d8:	a8 0d 20 1f 	and  %l4, 0x1f, %l4
     3dc:	a9 2c c0 14 	sll  %l3, %l4, %l4
     3e0:	82 15 00 01 	or  %l4, %g1, %g1
     3e4:	81 e0 00 00 	save 
     3e8:	81 90 40 00 	mov  %g1, %wim
     3ec:	01 00 00 00 	nop 
     3f0:	01 00 00 00 	nop 
     3f4:	01 00 00 00 	nop 
     3f8:	e0 3b a0 00 	std  %l0, [ %sp ]
     3fc:	e4 3b a0 08 	std  %l2, [ %sp + 8 ]
     400:	e8 3b a0 10 	std  %l4, [ %sp + 0x10 ]
     404:	ec 3b a0 18 	std  %l6, [ %sp + 0x18 ]
     408:	f0 3b a0 20 	std  %i0, [ %sp + 0x20 ]
     40c:	f4 3b a0 28 	std  %i2, [ %sp + 0x28 ]
     410:	f8 3b a0 30 	std  %i4, [ %sp + 0x30 ]
     414:	fc 3b a0 38 	std  %fp, [ %sp + 0x38 ]
     418:	81 e8 00 00 	restore 
     41c:	82 10 00 17 	mov  %l7, %g1
     420:	81 c4 40 00 	jmp  %l1
     424:	81 cc 80 00 	rett  %l2

00000428 <_prom_window_underflow>:
     428:	a7 50 00 00 	rd  %wim, %l3
     42c:	a9 2c e0 01 	sll  %l3, 1, %l4
     430:	ab 48 00 00 	rd  %psr, %l5
     434:	ab 35 60 18 	srl  %l5, 0x18, %l5
     438:	aa 0d 60 03 	and  %l5, 3, %l5
     43c:	80 a5 60 03 	cmp  %l5, 3
     440:	12 80 00 04 	bne  450 <_prom_window_underflow+0x28>
     444:	01 00 00 00 	nop 
     448:	ab 44 40 00 	rd  %asr17, %l5
     44c:	10 80 00 0b 	b  478 <_prom_window_underflow+0x50>
     450:	2b 00 00 04 	sethi  %hi(0x1000), %l5
     454:	aa 15 60 ec 	or  %l5, 0xec, %l5	! 10ec <_iserc32>
     458:	ea 05 40 00 	ld  [ %l5 ], %l5
     45c:	80 a5 40 00 	cmp  %l5, %g0
     460:	22 80 00 06 	be,a   478 <_prom_window_underflow+0x50>
     464:	aa 10 20 07 	mov  7, %l5
     468:	2b 20 00 00 	sethi  %hi(0x80000000), %l5
     46c:	aa 15 60 00 	mov  %l5, %l5	! 80000000 <LEON_REG>
     470:	ea 05 60 24 	ld  [ %l5 + 0x24 ], %l5
     474:	ab 35 60 14 	srl  %l5, 0x14, %l5
     478:	aa 0d 60 1f 	and  %l5, 0x1f, %l5
     47c:	ab 34 c0 15 	srl  %l3, %l5, %l5
     480:	aa 15 40 14 	or  %l5, %l4, %l5
     484:	81 95 40 00 	mov  %l5, %wim
     488:	01 00 00 00 	nop 
     48c:	01 00 00 00 	nop 
     490:	01 00 00 00 	nop 
     494:	81 e8 00 00 	restore 
     498:	81 e8 00 00 	restore 
     49c:	e0 1b a0 00 	ldd  [ %sp ], %l0
     4a0:	e4 1b a0 08 	ldd  [ %sp + 8 ], %l2
     4a4:	e8 1b a0 10 	ldd  [ %sp + 0x10 ], %l4
     4a8:	ec 1b a0 18 	ldd  [ %sp + 0x18 ], %l6
     4ac:	f0 1b a0 20 	ldd  [ %sp + 0x20 ], %i0
     4b0:	f4 1b a0 28 	ldd  [ %sp + 0x28 ], %i2
     4b4:	f8 1b a0 30 	ldd  [ %sp + 0x30 ], %i4
     4b8:	fc 1b a0 38 	ldd  [ %sp + 0x38 ], %fp
     4bc:	81 e0 00 00 	save 
     4c0:	81 e0 00 00 	save 
     4c4:	81 c4 40 00 	jmp  %l1
     4c8:	81 cc 80 00 	rett  %l2

000004cc <_prom_flush_windows>:
     4cc:	91 d0 20 00 	ta  0

000004d0 <_prom_irqcall>:
     4d0:	81 c4 40 00 	jmp  %l1
     4d4:	81 cc 80 00 	rett  %l2

000004d8 <_prom_cpuinit>:
     4d8:	81 c3 e0 08 	retl 
     4dc:	01 00 00 00 	nop 

000004e0 <_prom_fpdis>:
     4e0:	29 00 00 04 	sethi  %hi(0x1000), %l4
     4e4:	a6 8c 00 14 	andcc  %l0, %l4, %l3
     4e8:	32 80 00 03 	bne,a   4f4 <_prom_fpdis+0x14>
     4ec:	a0 2c 00 14 	andn  %l0, %l4, %l0
     4f0:	91 d0 20 00 	ta  0
     4f4:	81 8c 00 00 	mov  %l0, %psr
     4f8:	01 00 00 00 	nop 
     4fc:	01 00 00 00 	nop 
     500:	01 00 00 00 	nop 
     504:	81 c4 80 00 	jmp  %l2
     508:	81 cc a0 04 	rett  %l2 + 4

0000050c <_prom_ft>:
     50c:	81 c3 e0 08 	retl 
     510:	01 00 00 00 	nop 

00000514 <_prom_mp>:
     514:	81 c3 e0 08 	retl 
     518:	01 00 00 00 	nop 

0000051c <_prom_registers_init>:
     51c:	03 00 00 04 	sethi  %hi(0x1000), %g1
     520:	82 10 61 0c 	or  %g1, 0x10c, %g1	! 110c <_dsutrace>
     524:	c2 00 40 00 	ld  [ %g1 ], %g1
     528:	80 a0 40 00 	cmp  %g1, %g0
     52c:	02 80 00 0a 	be  554 <Lnodsu>
     530:	03 00 00 04 	sethi  %hi(0x1000), %g1
     534:	82 10 61 08 	or  %g1, 0x108, %g1	! 1108 <_dsustart>
     538:	c2 00 40 00 	ld  [ %g1 ], %g1
     53c:	05 00 00 04 	sethi  %hi(0x1000), %g2
     540:	84 10 a1 1c 	or  %g2, 0x11c, %g2	! 111c <_dsuctrl>
     544:	c4 00 80 00 	ld  [ %g2 ], %g2
     548:	c4 20 40 00 	st  %g2, [ %g1 ]
     54c:	84 10 20 01 	mov  1, %g2
     550:	c4 20 60 40 	st  %g2, [ %g1 + 0x40 ]

00000554 <Lnodsu>:
     554:	88 10 00 0f 	mov  %o7, %g4
     558:	05 00 20 40 	sethi  %hi(0x810000), %g2
     55c:	84 10 a0 0f 	or  %g2, 0xf, %g2	! 81000f <RAM_SIZE+0x41000f>
     560:	90 10 3f f0 	mov  -16, %o0
     564:	d2 02 00 00 	ld  [ %o0 ], %o1
     568:	95 32 60 10 	srl  %o1, 0x10, %o2
     56c:	17 00 00 3f 	sethi  %hi(0xfc00), %o3
     570:	96 12 e3 ff 	or  %o3, 0x3ff, %o3	! ffff <_section2+0x37cf>
     574:	94 0a 80 0b 	and  %o2, %o3, %o2
     578:	96 0a 40 0b 	and  %o1, %o3, %o3
     57c:	92 10 26 99 	mov  0x699, %o1
     580:	80 a2 80 09 	cmp  %o2, %o1
     584:	12 80 00 07 	bne  5a0 <nout699>
     588:	92 10 2a 04 	mov  0xa04, %o1
     58c:	80 a2 c0 09 	cmp  %o3, %o1
     590:	12 80 00 04 	bne  5a0 <nout699>
     594:	13 3f df ff 	sethi  %hi(0xff7ffc00), %o1
     598:	92 12 63 ff 	or  %o1, 0x3ff, %o1	! ff7fffff <LEON_REG+0x7f7fffff>
     59c:	84 08 80 09 	and  %g2, %o1, %g2

000005a0 <nout699>:
     5a0:	c4 a0 00 40 	sta  %g2, [ %g0 ] (2)
     5a4:	11 00 00 04 	sethi  %hi(0x1000), %o0
     5a8:	90 12 21 10 	or  %o0, 0x110, %o0	! 1110 <_nopnp>
     5ac:	d0 02 00 00 	ld  [ %o0 ], %o0
     5b0:	80 a2 00 00 	cmp  %o0, %g0
     5b4:	12 80 01 6d 	bne  b68 <directinit>
     5b8:	01 00 00 00 	nop 
     5bc:	0b 00 00 04 	sethi  %hi(0x1000), %g5
     5c0:	8a 11 61 14 	or  %g5, 0x114, %g5	! 1114 <_pnp>
     5c4:	ca 01 40 00 	ld  [ %g5 ], %g5
     5c8:	11 00 03 ff 	sethi  %hi(0xffc00), %o0
     5cc:	90 12 23 ff 	or  %o0, 0x3ff, %o0	! fffff <_endtext+0xe6b7f>
     5d0:	8a 29 40 08 	andn  %g5, %o0, %g5

000005d4 <LL1ddr2spa>:
     5d4:	90 10 20 01 	mov  1, %o0
     5d8:	92 10 20 2e 	mov  0x2e, %o1
     5dc:	40 00 01 ac 	call  c8c <mkprom_ahbslv_scan>
     5e0:	01 00 00 00 	nop 
     5e4:	80 a0 00 08 	cmp  %g0, %o0
     5e8:	02 80 00 20 	be  668 <LL1ddrspa>
     5ec:	01 00 00 00 	nop 
     5f0:	c2 02 20 14 	ld  [ %o0 + 0x14 ], %g1
     5f4:	11 3f fc 00 	sethi  %hi(0xfff00000), %o0
     5f8:	82 08 40 08 	and  %g1, %o0, %g1
     5fc:	83 30 60 0c 	srl  %g1, 0xc, %g1
     600:	82 10 40 05 	or  %g1, %g5, %g1
     604:	13 00 00 2e 	sethi  %hi(0xb800), %o1
     608:	92 12 63 81 	or  %o1, 0x381, %o1	! bb81 <_section0+0xa941>
     60c:	01 00 00 00 	nop 
     610:	01 00 00 00 	nop 
     614:	92 a2 60 01 	deccc  %o1
     618:	12 bf ff fd 	bne  60c <LL1ddr2spa+0x38>
     61c:	01 00 00 00 	nop 
     620:	11 00 00 04 	sethi  %hi(0x1000), %o0
     624:	90 12 21 34 	or  %o0, 0x134, %o0	! 1134 <_ddr2spa_cfg1>
     628:	d0 02 00 00 	ld  [ %o0 ], %o0
     62c:	d0 20 40 00 	st  %o0, [ %g1 ]
     630:	11 00 00 04 	sethi  %hi(0x1000), %o0
     634:	90 12 21 38 	or  %o0, 0x138, %o0	! 1138 <_ddr2spa_cfg3>
     638:	d0 02 00 00 	ld  [ %o0 ], %o0
     63c:	80 a2 00 00 	cmp  %o0, %g0
     640:	02 80 00 03 	be  64c <ddr2spa_checkcfg4>
     644:	01 00 00 00 	nop 
     648:	d0 20 60 08 	st  %o0, [ %g1 + 8 ]

0000064c <ddr2spa_checkcfg4>:
     64c:	11 00 00 04 	sethi  %hi(0x1000), %o0
     650:	90 12 21 3c 	or  %o0, 0x13c, %o0	! 113c <_ddr2spa_cfg4>
     654:	d0 02 00 00 	ld  [ %o0 ], %o0
     658:	80 a2 00 00 	cmp  %o0, %g0
     65c:	02 80 00 03 	be  668 <LL1ddrspa>
     660:	01 00 00 00 	nop 
     664:	d0 20 60 0c 	st  %o0, [ %g1 + 0xc ]

00000668 <LL1ddrspa>:
     668:	90 10 20 01 	mov  1, %o0
     66c:	92 10 20 25 	mov  0x25, %o1
     670:	40 00 01 87 	call  c8c <mkprom_ahbslv_scan>
     674:	01 00 00 00 	nop 
     678:	80 a0 00 08 	cmp  %g0, %o0
     67c:	02 80 00 18 	be  6dc <LLsdram>
     680:	01 00 00 00 	nop 
     684:	c2 02 20 14 	ld  [ %o0 + 0x14 ], %g1
     688:	11 3f fc 00 	sethi  %hi(0xfff00000), %o0
     68c:	82 08 40 08 	and  %g1, %o0, %g1
     690:	83 30 60 0c 	srl  %g1, 0xc, %g1
     694:	82 10 40 05 	or  %g1, %g5, %g1
     698:	13 00 00 2e 	sethi  %hi(0xb800), %o1
     69c:	92 12 63 81 	or  %o1, 0x381, %o1	! bb81 <_section0+0xa941>

000006a0 <LL1ddrspa_wait1200us>:
     6a0:	01 00 00 00 	nop 
     6a4:	01 00 00 00 	nop 
     6a8:	92 a2 60 01 	deccc  %o1
     6ac:	12 bf ff fd 	bne  6a0 <LL1ddrspa_wait1200us>
     6b0:	01 00 00 00 	nop 
     6b4:	11 00 00 04 	sethi  %hi(0x1000), %o0
     6b8:	90 12 21 40 	or  %o0, 0x140, %o0	! 1140 <_ddrspa_cfg1>
     6bc:	13 00 00 40 	sethi  %hi(0x10000), %o1
     6c0:	d0 02 00 00 	ld  [ %o0 ], %o0
     6c4:	90 12 00 09 	or  %o0, %o1, %o0
     6c8:	d0 20 40 00 	st  %o0, [ %g1 ]

000006cc <LL1ddrspa_wait_initdone>:
     6cc:	d0 00 40 00 	ld  [ %g1 ], %o0
     6d0:	90 8a 40 08 	andcc  %o1, %o0, %o0
     6d4:	12 bf ff fe 	bne  6cc <LL1ddrspa_wait_initdone>
     6d8:	01 00 00 00 	nop 

000006dc <LLsdram>:
     6dc:	90 10 20 01 	mov  1, %o0	! 1 <_start_svt_real+0x1>
     6e0:	92 10 20 09 	mov  9, %o1
     6e4:	40 00 01 6a 	call  c8c <mkprom_ahbslv_scan>
     6e8:	01 00 00 00 	nop 
     6ec:	80 a0 00 08 	cmp  %g0, %o0
     6f0:	02 80 00 0b 	be  71c <LLsdram64>
     6f4:	01 00 00 00 	nop 
     6f8:	c2 02 20 14 	ld  [ %o0 + 0x14 ], %g1
     6fc:	11 3f fc 00 	sethi  %hi(0xfff00000), %o0
     700:	82 08 40 08 	and  %g1, %o0, %g1
     704:	83 30 60 0c 	srl  %g1, 0xc, %g1
     708:	82 10 40 05 	or  %g1, %g5, %g1
     70c:	11 00 00 04 	sethi  %hi(0x1000), %o0
     710:	90 12 21 24 	or  %o0, 0x124, %o0	! 1124 <_memcfg2>
     714:	d0 02 00 00 	ld  [ %o0 ], %o0
     718:	d0 20 40 00 	st  %o0, [ %g1 ]

0000071c <LLsdram64>:
     71c:	90 10 20 01 	mov  1, %o0
     720:	92 10 20 58 	mov  0x58, %o1
     724:	40 00 01 5a 	call  c8c <mkprom_ahbslv_scan>
     728:	01 00 00 00 	nop 
     72c:	80 a0 00 08 	cmp  %g0, %o0
     730:	02 80 00 0f 	be  76c <LLspimctrl>
     734:	01 00 00 00 	nop 
     738:	c2 02 20 14 	ld  [ %o0 + 0x14 ], %g1
     73c:	11 3f fc 00 	sethi  %hi(0xfff00000), %o0
     740:	82 08 40 08 	and  %g1, %o0, %g1
     744:	83 30 60 0c 	srl  %g1, 0xc, %g1
     748:	82 10 40 05 	or  %g1, %g5, %g1
     74c:	11 00 00 04 	sethi  %hi(0x1000), %o0
     750:	90 12 21 28 	or  %o0, 0x128, %o0	! 1128 <ftsdctrl64_cfg>
     754:	d0 02 00 00 	ld  [ %o0 ], %o0
     758:	d0 20 40 00 	st  %o0, [ %g1 ]
     75c:	11 00 00 04 	sethi  %hi(0x1000), %o0
     760:	90 12 21 2c 	or  %o0, 0x12c, %o0	! 112c <ftsdctrl64_pwr>
     764:	d0 02 00 00 	ld  [ %o0 ], %o0
     768:	d0 20 60 04 	st  %o0, [ %g1 + 4 ]

0000076c <LLspimctrl>:
     76c:	90 10 20 01 	mov  1, %o0
     770:	92 10 20 45 	mov  0x45, %o1
     774:	40 00 01 46 	call  c8c <mkprom_ahbslv_scan>
     778:	01 00 00 00 	nop 
     77c:	80 a0 00 08 	cmp  %g0, %o0
     780:	02 80 00 0b 	be  7ac <LLapbmaster>
     784:	01 00 00 00 	nop 
     788:	c2 02 20 10 	ld  [ %o0 + 0x10 ], %g1
     78c:	11 3f fc 00 	sethi  %hi(0xfff00000), %o0
     790:	82 08 40 08 	and  %g1, %o0, %g1
     794:	83 30 60 0c 	srl  %g1, 0xc, %g1
     798:	82 10 40 05 	or  %g1, %g5, %g1
     79c:	11 00 00 04 	sethi  %hi(0x1000), %o0
     7a0:	90 12 21 48 	or  %o0, 0x148, %o0	! 1148 <_spimcfg>
     7a4:	d0 02 00 00 	ld  [ %o0 ], %o0
     7a8:	d0 20 60 04 	st  %o0, [ %g1 + 4 ]

000007ac <LLapbmaster>:
     7ac:	90 10 20 01 	mov  1, %o0
     7b0:	92 10 20 06 	mov  6, %o1
     7b4:	40 00 01 36 	call  c8c <mkprom_ahbslv_scan>
     7b8:	01 00 00 00 	nop 
     7bc:	80 a0 00 08 	cmp  %g0, %o0
     7c0:	02 80 00 a8 	be  a60 <multibus_scan>
     7c4:	01 00 00 00 	nop 
     7c8:	c2 02 20 10 	ld  [ %o0 + 0x10 ], %g1
     7cc:	11 3f fc 00 	sethi  %hi(0xfff00000), %o0
     7d0:	82 08 40 08 	and  %g1, %o0, %g1
     7d4:	11 00 03 fc 	sethi  %hi(0xff000), %o0
     7d8:	84 10 40 08 	or  %g1, %o0, %g2

000007dc <apb_irq_init>:
     7dc:	90 10 00 02 	mov  %g2, %o0
     7e0:	92 10 20 01 	mov  1, %o1
     7e4:	94 10 20 0d 	mov  0xd, %o2
     7e8:	40 00 01 41 	call  cec <mkprom_apbslv_scan>
     7ec:	9c 10 00 00 	mov  %g0, %sp
     7f0:	80 a0 00 08 	cmp  %g0, %o0
     7f4:	02 80 00 08 	be  814 <apb_uart_init>
     7f8:	01 00 00 00 	nop 
     7fc:	40 00 01 54 	call  d4c <mkprom_iobar_getbase>
     800:	92 10 00 01 	mov  %g1, %o1
     804:	c0 22 60 00 	clr  [ %o1 ]
     808:	c0 22 60 04 	clr  [ %o1 + 4 ]
     80c:	c0 22 60 08 	clr  [ %o1 + 8 ]
     810:	c0 22 60 0c 	clr  [ %o1 + 0xc ]

00000814 <apb_uart_init>:
     814:	86 10 00 00 	mov  %g0, %g3

00000818 <apb_uart_init_loop>:
     818:	90 10 00 02 	mov  %g2, %o0
     81c:	92 10 20 01 	mov  1, %o1
     820:	94 10 20 0c 	mov  0xc, %o2
     824:	40 00 01 32 	call  cec <mkprom_apbslv_scan>
     828:	9c 10 00 03 	mov  %g3, %sp
     82c:	80 a0 00 08 	cmp  %g0, %o0
     830:	02 80 00 0e 	be  868 <apb_timer_init>
     834:	01 00 00 00 	nop 
     838:	40 00 01 45 	call  d4c <mkprom_iobar_getbase>
     83c:	92 10 00 01 	mov  %g1, %o1
     840:	11 00 00 04 	sethi  %hi(0x1000), %o0
     844:	90 12 21 4c 	or  %o0, 0x14c, %o0	! 114c <_uart>
     848:	d0 02 00 00 	ld  [ %o0 ], %o0
     84c:	d0 22 60 0c 	st  %o0, [ %o1 + 0xc ]
     850:	90 10 20 03 	mov  3, %o0
     854:	d0 22 60 08 	st  %o0, [ %o1 + 8 ]
     858:	c0 22 60 04 	clr  [ %o1 + 4 ]
     85c:	86 00 e0 01 	inc  %g3
     860:	10 bf ff ee 	b  818 <apb_uart_init_loop>
     864:	01 00 00 00 	nop 

00000868 <apb_timer_init>:
     868:	86 10 00 00 	mov  %g0, %g3

0000086c <apb_timer_init_loop>:
     86c:	90 10 00 02 	mov  %g2, %o0
     870:	92 10 20 01 	mov  1, %o1
     874:	94 10 20 11 	mov  0x11, %o2
     878:	40 00 01 1d 	call  cec <mkprom_apbslv_scan>
     87c:	9c 10 00 03 	mov  %g3, %sp
     880:	80 a0 00 08 	cmp  %g0, %o0
     884:	02 80 00 1d 	be  8f8 <MCTRL>
     888:	01 00 00 00 	nop 
     88c:	40 00 01 30 	call  d4c <mkprom_iobar_getbase>
     890:	92 10 00 01 	mov  %g1, %o1
     894:	d0 02 60 08 	ld  [ %o1 + 8 ], %o0
     898:	90 0a 20 07 	and  %o0, 7, %o0
     89c:	96 10 20 00 	clr  %o3
     8a0:	90 a2 20 01 	deccc  %o0
     8a4:	12 bf ff ff 	bne  8a0 <apb_timer_init_loop+0x34>
     8a8:	96 02 e0 10 	add  %o3, 0x10, %o3
     8ac:	11 04 78 68 	sethi  %hi(0x11e1a000), %o0
     8b0:	90 12 23 00 	or  %o0, 0x300, %o0	! 11e1a300 <RAM_END+0xfa1a300>
     8b4:	d0 22 40 0b 	st  %o0, [ %o1 + %o3 ]
     8b8:	96 02 e0 04 	add  %o3, 4, %o3
     8bc:	d0 22 40 0b 	st  %o0, [ %o1 + %o3 ]
     8c0:	11 00 00 04 	sethi  %hi(0x1000), %o0
     8c4:	90 12 20 e0 	or  %o0, 0xe0, %o0	! 10e0 <freq>
     8c8:	d0 02 00 00 	ld  [ %o0 ], %o0
     8cc:	90 22 20 01 	dec  %o0
     8d0:	d0 22 60 04 	st  %o0, [ %o1 + 4 ]
     8d4:	d0 22 60 00 	st  %o0, [ %o1 ]
     8d8:	90 10 3f ff 	mov  -1, %o0
     8dc:	d0 22 60 10 	st  %o0, [ %o1 + 0x10 ]
     8e0:	d0 22 60 14 	st  %o0, [ %o1 + 0x14 ]
     8e4:	90 10 20 07 	mov  7, %o0
     8e8:	d0 22 60 18 	st  %o0, [ %o1 + 0x18 ]
     8ec:	86 00 e0 01 	inc  %g3
     8f0:	10 bf ff df 	b  86c <apb_timer_init_loop>
     8f4:	01 00 00 00 	nop 

000008f8 <MCTRL>:
     8f8:	90 10 00 02 	mov  %g2, %o0
     8fc:	92 10 20 04 	mov  4, %o1
     900:	94 10 20 0f 	mov  0xf, %o2
     904:	40 00 00 fa 	call  cec <mkprom_apbslv_scan>
     908:	9c 10 00 00 	mov  %g0, %sp
     90c:	80 a0 00 08 	cmp  %g0, %o0
     910:	02 80 00 1a 	be  978 <FTMCTRL>
     914:	01 00 00 00 	nop 
     918:	40 00 01 0d 	call  d4c <mkprom_iobar_getbase>
     91c:	92 10 00 01 	mov  %g1, %o1
     920:	c0 22 60 08 	clr  [ %o1 + 8 ]
     924:	11 00 00 04 	sethi  %hi(0x1000), %o0
     928:	90 12 21 20 	or  %o0, 0x120, %o0	! 1120 <_memcfg1>
     92c:	d0 02 00 00 	ld  [ %o0 ], %o0
     930:	d4 02 60 00 	ld  [ %o1 ], %o2
     934:	94 0a a3 00 	and  %o2, 0x300, %o2
     938:	90 2a 23 00 	andn  %o0, 0x300, %o0
     93c:	90 12 00 0a 	or  %o0, %o2, %o0
     940:	d0 22 60 00 	st  %o0, [ %o1 ]
     944:	11 00 00 04 	sethi  %hi(0x1000), %o0
     948:	90 12 21 24 	or  %o0, 0x124, %o0	! 1124 <_memcfg2>
     94c:	d0 02 00 00 	ld  [ %o0 ], %o0
     950:	d0 22 60 04 	st  %o0, [ %o1 + 4 ]
     954:	11 00 00 04 	sethi  %hi(0x1000), %o0
     958:	90 12 21 5c 	or  %o0, 0x15c, %o0	! 115c <_memcfg3>
     95c:	d0 02 00 00 	ld  [ %o0 ], %o0
     960:	d4 02 60 08 	ld  [ %o1 + 8 ], %o2
     964:	96 10 21 00 	mov  0x100, %o3
     968:	94 0a 80 0b 	and  %o2, %o3, %o2
     96c:	90 2a 00 0b 	andn  %o0, %o3, %o0
     970:	90 12 00 0a 	or  %o0, %o2, %o0
     974:	d0 22 60 08 	st  %o0, [ %o1 + 8 ]

00000978 <FTMCTRL>:
     978:	90 10 00 02 	mov  %g2, %o0
     97c:	92 10 20 01 	mov  1, %o1
     980:	94 10 20 54 	mov  0x54, %o2
     984:	40 00 00 da 	call  cec <mkprom_apbslv_scan>
     988:	9c 10 00 00 	mov  %g0, %sp
     98c:	80 a0 00 08 	cmp  %g0, %o0
     990:	02 80 00 19 	be  9f4 <FTSRCTRL>
     994:	01 00 00 00 	nop 
     998:	40 00 00 ed 	call  d4c <mkprom_iobar_getbase>
     99c:	92 10 00 01 	mov  %g1, %o1
     9a0:	11 00 00 04 	sethi  %hi(0x1000), %o0
     9a4:	90 12 21 20 	or  %o0, 0x120, %o0	! 1120 <_memcfg1>
     9a8:	d0 02 00 00 	ld  [ %o0 ], %o0
     9ac:	d4 02 60 00 	ld  [ %o1 ], %o2
     9b0:	94 0a a3 00 	and  %o2, 0x300, %o2
     9b4:	90 2a 23 00 	andn  %o0, 0x300, %o0
     9b8:	90 12 00 0a 	or  %o0, %o2, %o0
     9bc:	d0 22 60 00 	st  %o0, [ %o1 ]
     9c0:	11 00 00 04 	sethi  %hi(0x1000), %o0
     9c4:	90 12 21 24 	or  %o0, 0x124, %o0	! 1124 <_memcfg2>
     9c8:	d0 02 00 00 	ld  [ %o0 ], %o0
     9cc:	d0 22 60 04 	st  %o0, [ %o1 + 4 ]
     9d0:	11 00 00 04 	sethi  %hi(0x1000), %o0
     9d4:	90 12 21 5c 	or  %o0, 0x15c, %o0	! 115c <_memcfg3>
     9d8:	d0 02 00 00 	ld  [ %o0 ], %o0
     9dc:	d4 02 60 08 	ld  [ %o1 + 8 ], %o2
     9e0:	96 10 21 00 	mov  0x100, %o3
     9e4:	94 0a 80 0b 	and  %o2, %o3, %o2
     9e8:	90 2a 00 0b 	andn  %o0, %o3, %o0
     9ec:	90 12 00 0a 	or  %o0, %o2, %o0
     9f0:	d0 22 60 08 	st  %o0, [ %o1 + 8 ]

000009f4 <FTSRCTRL>:
     9f4:	90 10 00 02 	mov  %g2, %o0
     9f8:	92 10 20 01 	mov  1, %o1
     9fc:	94 10 20 51 	mov  0x51, %o2
     a00:	40 00 00 bb 	call  cec <mkprom_apbslv_scan>
     a04:	9c 10 00 00 	mov  %g0, %sp
     a08:	80 a0 00 08 	cmp  %g0, %o0
     a0c:	02 80 00 15 	be  a60 <multibus_scan>
     a10:	01 00 00 00 	nop 
     a14:	40 00 00 ce 	call  d4c <mkprom_iobar_getbase>
     a18:	92 10 00 01 	mov  %g1, %o1
     a1c:	11 00 00 04 	sethi  %hi(0x1000), %o0
     a20:	90 12 21 20 	or  %o0, 0x120, %o0	! 1120 <_memcfg1>
     a24:	d0 02 00 00 	ld  [ %o0 ], %o0
     a28:	d0 22 60 00 	st  %o0, [ %o1 ]
     a2c:	11 00 00 04 	sethi  %hi(0x1000), %o0
     a30:	90 12 21 24 	or  %o0, 0x124, %o0	! 1124 <_memcfg2>
     a34:	d0 02 00 00 	ld  [ %o0 ], %o0
     a38:	d0 22 60 04 	st  %o0, [ %o1 + 4 ]
     a3c:	11 00 00 04 	sethi  %hi(0x1000), %o0
     a40:	90 12 21 5c 	or  %o0, 0x15c, %o0	! 115c <_memcfg3>
     a44:	d0 02 00 00 	ld  [ %o0 ], %o0
     a48:	d4 02 60 08 	ld  [ %o1 + 8 ], %o2
     a4c:	96 10 21 00 	mov  0x100, %o3
     a50:	94 0a 80 0b 	and  %o2, %o3, %o2
     a54:	90 2a 00 0b 	andn  %o0, %o3, %o0
     a58:	90 12 00 0a 	or  %o0, %o2, %o0
     a5c:	d0 22 60 08 	st  %o0, [ %o1 + 8 ]

00000a60 <multibus_scan>:
     a60:	9a 10 00 05 	mov  %g5, %o5
     a64:	17 00 03 fe 	sethi  %hi(0xff800), %o3
     a68:	9a 13 40 0b 	or  %o5, %o3, %o5
     a6c:	96 10 20 00 	clr  %o3
     a70:	91 2a e0 05 	sll  %o3, 5, %o0
     a74:	98 03 40 08 	add  %o5, %o0, %o4
     a78:	d4 03 40 08 	ld  [ %o5 + %o0 ], %o2
     a7c:	91 32 a0 18 	srl  %o2, 0x18, %o0
     a80:	80 a0 60 01 	cmp  %g1, 1
     a84:	32 80 00 33 	bne,a   b50 <no_recur+0x50>
     a88:	96 02 e0 01 	inc  %o3
     a8c:	91 32 a0 0c 	srl  %o2, 0xc, %o0
     a90:	90 0a 2f ff 	and  %o0, 0xfff, %o0
     a94:	80 a2 20 20 	cmp  %o0, 0x20
     a98:	02 80 00 0f 	be  ad4 <bridge>
     a9c:	01 00 00 00 	nop 
     aa0:	80 a2 20 4f 	cmp  %o0, 0x4f
     aa4:	02 80 00 0c 	be  ad4 <bridge>
     aa8:	01 00 00 00 	nop 
     aac:	80 a2 20 4b 	cmp  %o0, 0x4b
     ab0:	12 80 00 18 	bne  b10 <no_recur+0x10>
     ab4:	01 00 00 00 	nop 
     ab8:	d4 03 20 14 	ld  [ %o4 + 0x14 ], %o2
     abc:	1d 3f fc 00 	sethi  %hi(0xfff00000), %sp
     ac0:	94 0a 80 0e 	and  %o2, %sp, %o2
     ac4:	dc 02 a0 00 	ld  [ %o2 ], %sp
     ac8:	13 20 00 00 	sethi  %hi(0x80000000), %o1
     acc:	9c 2b 80 09 	andn  %sp, %o1, %sp
     ad0:	dc 22 a0 00 	st  %sp, [ %o2 ]

00000ad4 <bridge>:
     ad4:	81 e0 00 00 	save 
     ad8:	a8 10 00 04 	mov  %g4, %l4
     adc:	aa 10 00 05 	mov  %g5, %l5
     ae0:	ac 10 00 18 	mov  %i0, %l6

00000ae4 <bridge_ioarea>:
     ae4:	c8 07 20 08 	ld  [ %i4 + 8 ], %g4
     ae8:	80 a1 00 00 	cmp  %g4, %g0
     aec:	02 80 00 05 	be  b00 <no_recur>
     af0:	0b 00 00 01 	sethi  %hi(0x400), %g5
     af4:	8a 11 61 d4 	or  %g5, 0x1d4, %g5	! 5d4 <LL1ddr2spa>
     af8:	89 c1 40 00 	jmpl  %g5, %g4
     afc:	ca 07 20 08 	ld  [ %i4 + 8 ], %g5

00000b00 <no_recur>:
     b00:	88 10 00 14 	mov  %l4, %g4
     b04:	8a 10 00 15 	mov  %l5, %g5
     b08:	b0 10 00 16 	mov  %l6, %i0
     b0c:	81 e8 00 00 	restore 
     b10:	80 a2 20 4b 	cmp  %o0, 0x4b
     b14:	12 80 00 0d 	bne  b48 <no_recur+0x48>
     b18:	01 00 00 00 	nop 
     b1c:	d4 03 20 14 	ld  [ %o4 + 0x14 ], %o2
     b20:	1d 3f fc 00 	sethi  %hi(0xfff00000), %sp
     b24:	94 0a 80 0e 	and  %o2, %sp, %o2
     b28:	dc 02 a0 08 	ld  [ %o2 + 8 ], %sp
     b2c:	9c 0b a0 07 	and  %sp, 7, %sp
     b30:	9c 13 a0 05 	or  %sp, 5, %sp
     b34:	dc 22 a0 08 	st  %sp, [ %o2 + 8 ]
     b38:	dc 02 a0 00 	ld  [ %o2 ], %sp
     b3c:	13 20 00 00 	sethi  %hi(0x80000000), %o1
     b40:	9c 13 80 09 	or  %sp, %o1, %sp
     b44:	dc 22 a0 00 	st  %sp, [ %o2 ]
     b48:	94 10 00 0c 	mov  %o4, %o2
     b4c:	96 02 e0 01 	inc  %o3
     b50:	80 a2 e0 07 	cmp  %o3, 7
     b54:	28 bf ff c8 	bleu,a   a74 <multibus_scan+0x14>
     b58:	91 2a e0 05 	sll  %o3, 5, %o0
     b5c:	94 10 20 00 	clr  %o2

00000b60 <multibusout>:
     b60:	10 80 00 48 	b  c80 <initout>
     b64:	01 00 00 00 	nop 

00000b68 <directinit>:
     b68:	03 00 00 04 	sethi  %hi(0x1000), %g1
     b6c:	82 10 61 80 	or  %g1, 0x180, %g1	! 1180 <_memcaddr>
     b70:	05 00 20 40 	sethi  %hi(0x810000), %g2
     b74:	84 10 a0 0f 	or  %g2, 0xf, %g2	! 81000f <RAM_SIZE+0x41000f>
     b78:	c2 00 40 00 	ld  [ %g1 ], %g1
     b7c:	c4 a0 00 40 	sta  %g2, [ %g0 ] (2)
     b80:	c0 20 60 08 	clr  [ %g1 + 8 ]
     b84:	05 00 00 04 	sethi  %hi(0x1000), %g2
     b88:	84 10 a1 20 	or  %g2, 0x120, %g2	! 1120 <_memcfg1>
     b8c:	c4 00 80 00 	ld  [ %g2 ], %g2
     b90:	c6 00 40 00 	ld  [ %g1 ], %g3
     b94:	86 08 e3 00 	and  %g3, 0x300, %g3
     b98:	84 10 80 03 	or  %g2, %g3, %g2
     b9c:	c4 20 60 00 	st  %g2, [ %g1 ]
     ba0:	05 00 00 04 	sethi  %hi(0x1000), %g2
     ba4:	84 10 a1 24 	or  %g2, 0x124, %g2	! 1124 <_memcfg2>
     ba8:	c4 00 80 00 	ld  [ %g2 ], %g2
     bac:	c4 20 60 04 	st  %g2, [ %g1 + 4 ]
     bb0:	05 00 00 04 	sethi  %hi(0x1000), %g2
     bb4:	84 10 a1 5c 	or  %g2, 0x15c, %g2	! 115c <_memcfg3>
     bb8:	c4 00 80 00 	ld  [ %g2 ], %g2
     bbc:	c4 20 60 08 	st  %g2, [ %g1 + 8 ]
     bc0:	03 00 00 04 	sethi  %hi(0x1000), %g1
     bc4:	82 10 61 88 	or  %g1, 0x188, %g1	! 1188 <_irqmpaddr>
     bc8:	c2 00 40 00 	ld  [ %g1 ], %g1
     bcc:	c0 20 60 00 	clr  [ %g1 ]
     bd0:	c0 20 60 04 	clr  [ %g1 + 4 ]
     bd4:	c0 20 60 08 	clr  [ %g1 + 8 ]
     bd8:	86 10 3f ff 	mov  -1, %g3
     bdc:	c6 20 60 0c 	st  %g3, [ %g1 + 0xc ]
     be0:	86 10 00 00 	mov  %g0, %g3

00000be4 <irqcpuinit>:
     be4:	85 28 e0 02 	sll  %g3, 2, %g2
     be8:	84 00 40 02 	add  %g1, %g2, %g2
     bec:	c0 20 a0 40 	clr  [ %g2 + 0x40 ]
     bf0:	c0 20 a0 80 	clr  [ %g2 + 0x80 ]
     bf4:	80 a0 e0 0f 	cmp  %g3, 0xf
     bf8:	12 bf ff fb 	bne  be4 <irqcpuinit>
     bfc:	86 00 e0 01 	inc  %g3
     c00:	05 00 00 04 	sethi  %hi(0x1000), %g2
     c04:	84 10 a0 e0 	or  %g2, 0xe0, %g2	! 10e0 <freq>
     c08:	c4 00 80 00 	ld  [ %g2 ], %g2
     c0c:	84 20 a0 01 	dec  %g2
     c10:	03 00 00 04 	sethi  %hi(0x1000), %g1
     c14:	82 10 61 84 	or  %g1, 0x184, %g1	! 1184 <_gptaddr>
     c18:	c2 00 40 00 	ld  [ %g1 ], %g1
     c1c:	c4 20 60 04 	st  %g2, [ %g1 + 4 ]
     c20:	c4 20 60 00 	st  %g2, [ %g1 ]
     c24:	86 10 3f ff 	mov  -1, %g3
     c28:	c6 20 60 10 	st  %g3, [ %g1 + 0x10 ]
     c2c:	c6 20 60 14 	st  %g3, [ %g1 + 0x14 ]
     c30:	86 10 20 07 	mov  7, %g3
     c34:	c6 20 60 18 	st  %g3, [ %g1 + 0x18 ]
     c38:	07 00 00 04 	sethi  %hi(0x1000), %g3
     c3c:	86 10 e1 54 	or  %g3, 0x154, %g3	! 1154 <_uartnr>
     c40:	c6 00 c0 00 	ld  [ %g3 ], %g3

00000c44 <uartinit>:
     c44:	80 a0 e0 00 	cmp  %g3, 0
     c48:	02 80 00 0e 	be  c80 <initout>
     c4c:	86 20 e0 01 	dec  %g3
     c50:	85 28 e0 02 	sll  %g3, 2, %g2
     c54:	03 00 00 04 	sethi  %hi(0x1000), %g1
     c58:	82 10 61 50 	or  %g1, 0x150, %g1	! 1150 <_uaddr>
     c5c:	c2 00 40 02 	ld  [ %g1 + %g2 ], %g1
     c60:	05 00 00 04 	sethi  %hi(0x1000), %g2
     c64:	84 10 a1 4c 	or  %g2, 0x14c, %g2	! 114c <_uart>
     c68:	c4 00 80 00 	ld  [ %g2 ], %g2
     c6c:	c4 20 60 0c 	st  %g2, [ %g1 + 0xc ]
     c70:	84 10 20 03 	mov  3, %g2
     c74:	c4 20 60 08 	st  %g2, [ %g1 + 8 ]
     c78:	10 bf ff f3 	b  c44 <uartinit>
     c7c:	c0 20 60 04 	clr  [ %g1 + 4 ]

00000c80 <initout>:
     c80:	81 80 00 00 	mov  %g0, %y
     c84:	81 c1 20 08 	jmp  %g4 + 8
     c88:	01 00 00 00 	nop 

00000c8c <mkprom_ahbslv_scan>:
     c8c:	82 10 00 08 	mov  %o0, %g1
     c90:	9a 10 00 05 	mov  %g5, %o5
     c94:	17 00 03 fe 	sethi  %hi(0xff800), %o3
     c98:	9a 13 40 0b 	or  %o5, %o3, %o5
     c9c:	96 10 20 00 	clr  %o3
     ca0:	91 2a e0 05 	sll  %o3, 5, %o0
     ca4:	98 03 40 08 	add  %o5, %o0, %o4
     ca8:	d4 03 40 08 	ld  [ %o5 + %o0 ], %o2
     cac:	91 32 a0 18 	srl  %o2, 0x18, %o0
     cb0:	80 a2 00 01 	cmp  %o0, %g1
     cb4:	32 80 00 08 	bne,a   cd4 <mkprom_ahbslv_scan+0x48>
     cb8:	96 02 e0 01 	inc  %o3
     cbc:	91 32 a0 0c 	srl  %o2, 0xc, %o0
     cc0:	90 0a 2f ff 	and  %o0, 0xfff, %o0
     cc4:	80 a2 00 09 	cmp  %o0, %o1
     cc8:	02 80 00 07 	be  ce4 <mkprom_ahbslv_scan+0x58>
     ccc:	94 10 00 0c 	mov  %o4, %o2
     cd0:	96 02 e0 01 	inc  %o3
     cd4:	80 a2 e0 07 	cmp  %o3, 7
     cd8:	28 bf ff f3 	bleu,a   ca4 <mkprom_ahbslv_scan+0x18>
     cdc:	91 2a e0 05 	sll  %o3, 5, %o0
     ce0:	94 10 20 00 	clr  %o2
     ce4:	81 c3 e0 08 	retl 
     ce8:	90 10 00 0a 	mov  %o2, %o0

00000cec <mkprom_apbslv_scan>:
     cec:	82 10 00 08 	mov  %o0, %g1
     cf0:	98 10 20 00 	clr  %o4
     cf4:	91 2b 20 03 	sll  %o4, 3, %o0
     cf8:	9a 00 40 08 	add  %g1, %o0, %o5
     cfc:	d6 00 40 08 	ld  [ %g1 + %o0 ], %o3
     d00:	91 32 e0 18 	srl  %o3, 0x18, %o0
     d04:	80 a2 00 09 	cmp  %o0, %o1
     d08:	32 80 00 0b 	bne,a   d34 <mkprom_apbslv_scan+0x48>
     d0c:	98 03 20 01 	inc  %o4
     d10:	91 32 e0 0c 	srl  %o3, 0xc, %o0
     d14:	90 0a 2f ff 	and  %o0, 0xfff, %o0
     d18:	80 a2 00 0a 	cmp  %o0, %o2
     d1c:	12 80 00 05 	bne  d30 <mkprom_apbslv_scan+0x44>
     d20:	80 a0 00 0e 	cmp  %g0, %sp
     d24:	22 80 00 08 	be,a   d44 <mkprom_apbslv_scan+0x58>
     d28:	96 10 00 0d 	mov  %o5, %o3
     d2c:	9c 23 a0 01 	dec  %sp
     d30:	98 03 20 01 	inc  %o4
     d34:	80 a3 20 0f 	cmp  %o4, 0xf
     d38:	28 bf ff f0 	bleu,a   cf8 <mkprom_apbslv_scan+0xc>
     d3c:	91 2b 20 03 	sll  %o4, 3, %o0
     d40:	96 10 20 00 	clr  %o3
     d44:	81 c3 e0 08 	retl 
     d48:	90 10 00 0b 	mov  %o3, %o0

00000d4c <mkprom_iobar_getbase>:
     d4c:	d4 02 20 04 	ld  [ %o0 + 4 ], %o2
     d50:	17 3f fc 00 	sethi  %hi(0xfff00000), %o3
     d54:	92 0a 40 0b 	and  %o1, %o3, %o1
     d58:	90 0a 80 0b 	and  %o2, %o3, %o0
     d5c:	91 32 20 0c 	srl  %o0, 0xc, %o0
     d60:	92 12 40 08 	or  %o1, %o0, %o1
     d64:	11 00 00 3f 	sethi  %hi(0xfc00), %o0
     d68:	90 12 23 f0 	or  %o0, 0x3f0, %o0	! fff0 <_section2+0x37c0>
     d6c:	94 0a 80 08 	and  %o2, %o0, %o2
     d70:	95 2a a0 04 	sll  %o2, 4, %o2
     d74:	94 12 80 0b 	or  %o2, %o3, %o2
     d78:	92 0a 40 0a 	and  %o1, %o2, %o1
     d7c:	81 c3 e0 08 	retl 
     d80:	90 10 00 09 	mov  %o1, %o0

00000d84 <_prom_crt_start>:
     d84:	9d e3 bf c0 	save  %sp, -64, %sp
     d88:	05 00 00 65 	sethi  %hi(0x19400), %g2
     d8c:	84 10 a0 80 	or  %g2, 0x80, %g2	! 19480 <_endtext>
     d90:	07 00 00 65 	sethi  %hi(0x19400), %g3
     d94:	86 10 e0 80 	or  %g3, 0x80, %g3	! 19480 <_endtext>
     d98:	80 a0 80 03 	cmp  %g2, %g3
     d9c:	02 80 00 04 	be  dac <_prom_crt_start+0x28>
     da0:	11 00 00 65 	sethi  %hi(0x19400), %o0
     da4:	90 12 20 80 	or  %o0, 0x80, %o0	! 19480 <_endtext>
     da8:	c0 22 00 00 	clr  [ %o0 ]
     dac:	82 10 00 00 	mov  %g0, %g1
     db0:	86 20 c0 02 	sub  %g3, %g2, %g3

00000db4 <zerobss>:
     db4:	86 a0 e0 08 	subcc  %g3, 8, %g3
     db8:	36 bf ff ff 	bge,a   db4 <zerobss>
     dbc:	c0 38 80 03 	std  %g0, [ %g2 + %g3 ]
     dc0:	40 00 00 c3 	call  10cc <bdinit2>
     dc4:	01 00 00 00 	nop 
     dc8:	40 00 00 68 	call  f68 <main>
     dcc:	01 00 00 00 	nop 
     dd0:	81 c7 e0 08 	ret 
     dd4:	81 e8 00 00 	restore 

00000dd8 <__main>:
     dd8:	81 c3 e0 08 	retl 
     ddc:	01 00 00 00 	nop 

00000de0 <clean>:
     de0:	93 3a 60 03 	sra  %o1, 3, %o1
     de4:	80 a2 60 00 	cmp  %o1, 0
     de8:	06 80 00 09 	bl  e0c <clean+0x2c>
     dec:	83 2a 60 03 	sll  %o1, 3, %g1
     df0:	82 02 00 01 	add  %o0, %g1, %g1
     df4:	c0 20 40 00 	clr  [ %g1 ]
     df8:	c0 20 60 04 	clr  [ %g1 + 4 ]
     dfc:	92 02 7f ff 	add  %o1, -1, %o1
     e00:	80 a2 7f ff 	cmp  %o1, -1
     e04:	12 bf ff fc 	bne  df4 <clean+0x14>
     e08:	82 00 7f f8 	add  %g1, -8, %g1
     e0c:	81 c3 e0 08 	retl 
     e10:	01 00 00 00 	nop 

00000e14 <mmov>:
     e14:	95 3a a0 02 	sra  %o2, 2, %o2
     e18:	80 a2 a0 00 	cmp  %o2, 0
     e1c:	06 80 00 0b 	bl  e48 <mmov+0x34>
     e20:	85 2a a0 02 	sll  %o2, 2, %g2
     e24:	82 02 40 02 	add  %o1, %g2, %g1
     e28:	90 02 00 02 	add  %o0, %g2, %o0
     e2c:	c4 02 00 00 	ld  [ %o0 ], %g2
     e30:	c4 20 40 00 	st  %g2, [ %g1 ]
     e34:	94 02 bf ff 	add  %o2, -1, %o2
     e38:	90 02 3f fc 	add  %o0, -4, %o0
     e3c:	80 a2 bf ff 	cmp  %o2, -1
     e40:	12 bf ff fb 	bne  e2c <mmov+0x18>
     e44:	82 00 7f fc 	add  %g1, -4, %g1
     e48:	81 c3 e0 08 	retl 
     e4c:	01 00 00 00 	nop 

00000e50 <putsx>:
     e50:	9d e3 bf a0 	save  %sp, -96, %sp
     e54:	03 00 00 04 	sethi  %hi(0x1000), %g1
     e58:	c2 00 60 ec 	ld  [ %g1 + 0xec ], %g1	! 10ec <_iserc32>
     e5c:	80 a0 60 00 	cmp  %g1, 0
     e60:	02 80 00 15 	be  eb4 <putsx+0x64>
     e64:	01 00 00 00 	nop 
     e68:	c6 0e 00 00 	ldub  [ %i0 ], %g3
     e6c:	80 a0 e0 00 	cmp  %g3, 0
     e70:	02 80 00 0f 	be  eac <putsx+0x5c>
     e74:	05 00 7e 00 	sethi  %hi(0x1f80000), %g2
     e78:	84 10 a0 00 	mov  %g2, %g2	! 1f80000 <ERC32_MEC>
     e7c:	88 00 a0 e0 	add  %g2, 0xe0, %g4
     e80:	84 00 a0 e8 	add  %g2, 0xe8, %g2
     e84:	c2 00 80 00 	ld  [ %g2 ], %g1
     e88:	80 88 60 04 	btst  4, %g1
     e8c:	02 bf ff fe 	be  e84 <putsx+0x34>
     e90:	01 00 00 00 	nop 
     e94:	c6 21 00 00 	st  %g3, [ %g4 ]
     e98:	b0 06 20 01 	inc  %i0
     e9c:	c6 0e 00 00 	ldub  [ %i0 ], %g3
     ea0:	80 a0 e0 00 	cmp  %g3, 0
     ea4:	12 bf ff f8 	bne  e84 <putsx+0x34>
     ea8:	01 00 00 00 	nop 
     eac:	81 c7 e0 08 	ret 
     eb0:	81 e8 00 00 	restore 
     eb4:	7f ff fd 32 	call  37c <_prom_getpsr>
     eb8:	01 00 00 00 	nop 
     ebc:	09 20 00 00 	sethi  %hi(0x80000000), %g4
     ec0:	83 3a 20 18 	sra  %o0, 0x18, %g1
     ec4:	82 08 60 0f 	and  %g1, 0xf, %g1
     ec8:	80 a0 60 03 	cmp  %g1, 3
     ecc:	02 80 00 12 	be  f14 <putsx+0xc4>
     ed0:	88 11 20 70 	or  %g4, 0x70, %g4
     ed4:	c6 0e 00 00 	ldub  [ %i0 ], %g3
     ed8:	80 a0 e0 00 	cmp  %g3, 0
     edc:	02 bf ff f4 	be  eac <putsx+0x5c>
     ee0:	84 01 20 04 	add  %g4, 4, %g2
     ee4:	c2 00 80 00 	ld  [ %g2 ], %g1
     ee8:	80 88 60 04 	btst  4, %g1
     eec:	02 bf ff fe 	be  ee4 <putsx+0x94>
     ef0:	01 00 00 00 	nop 
     ef4:	c6 21 00 00 	st  %g3, [ %g4 ]
     ef8:	b0 06 20 01 	inc  %i0
     efc:	c6 0e 00 00 	ldub  [ %i0 ], %g3
     f00:	80 a0 e0 00 	cmp  %g3, 0
     f04:	12 bf ff f8 	bne  ee4 <putsx+0x94>
     f08:	01 00 00 00 	nop 
     f0c:	81 c7 e0 08 	ret 
     f10:	81 e8 00 00 	restore 
     f14:	03 00 00 04 	sethi  %hi(0x1000), %g1
     f18:	10 bf ff ef 	b  ed4 <putsx+0x84>
     f1c:	c8 00 61 50 	ld  [ %g1 + 0x150 ], %g4	! 1150 <_uaddr>

00000f20 <puthex>:
     f20:	9d e3 bf 90 	save  %sp, -112, %sp
     f24:	82 10 20 00 	clr  %g1
     f28:	90 07 bf f0 	add  %fp, -16, %o0
     f2c:	85 36 20 1c 	srl  %i0, 0x1c, %g2
     f30:	b1 2e 20 04 	sll  %i0, 4, %i0
     f34:	80 a0 a0 09 	cmp  %g2, 9
     f38:	04 80 00 03 	ble  f44 <puthex+0x24>
     f3c:	86 00 a0 30 	add  %g2, 0x30, %g3
     f40:	86 00 a0 57 	add  %g2, 0x57, %g3
     f44:	c6 2a 00 01 	stb  %g3, [ %o0 + %g1 ]
     f48:	82 00 60 01 	inc  %g1
     f4c:	80 a0 60 08 	cmp  %g1, 8
     f50:	12 bf ff f8 	bne  f30 <puthex+0x10>
     f54:	85 36 20 1c 	srl  %i0, 0x1c, %g2
     f58:	7f ff ff be 	call  e50 <putsx>
     f5c:	c0 2f bf f8 	clrb  [ %fp + -8 ]
     f60:	81 c7 e0 08 	ret 
     f64:	81 e8 00 00 	restore 

00000f68 <main>:
     f68:	9d e3 bf a0 	save  %sp, -96, %sp
     f6c:	29 00 00 64 	sethi  %hi(0x19000), %l4
     f70:	c2 05 21 c0 	ld  [ %l4 + 0x1c0 ], %g1	! 191c0 <sections>
     f74:	80 a0 60 00 	cmp  %g1, 0
     f78:	a8 15 21 c0 	or  %l4, 0x1c0, %l4
     f7c:	02 80 00 2a 	be  1024 <main+0xbc>
     f80:	a0 10 00 01 	mov  %g1, %l0
     f84:	27 00 00 04 	sethi  %hi(0x1000), %l3
     f88:	3b 00 00 65 	sethi  %hi(0x19400), %i5
     f8c:	2f 00 00 65 	sethi  %hi(0x19400), %l7
     f90:	2d 00 00 65 	sethi  %hi(0x19400), %l6
     f94:	2b 00 00 65 	sethi  %hi(0x19400), %l5
     f98:	a6 14 e0 e8 	or  %l3, 0xe8, %l3
     f9c:	ba 17 60 50 	or  %i5, 0x50, %i5
     fa0:	ae 15 e0 60 	or  %l7, 0x60, %l7
     fa4:	ac 15 a0 70 	or  %l6, 0x70, %l6
     fa8:	aa 15 60 78 	or  %l5, 0x78, %l5
     fac:	a2 10 00 14 	mov  %l4, %l1
     fb0:	a4 10 20 00 	clr  %l2
     fb4:	80 a0 68 00 	cmp  %g1, 0x800
     fb8:	22 80 00 17 	be,a   1014 <main+0xac>
     fbc:	c2 04 60 20 	ld  [ %l1 + 0x20 ], %g1
     fc0:	c2 04 c0 00 	ld  [ %l3 ], %g1
     fc4:	80 a0 60 00 	cmp  %g1, 0
     fc8:	12 80 00 2d 	bne  107c <main+0x114>
     fcc:	01 00 00 00 	nop 
     fd0:	c2 04 60 08 	ld  [ %l1 + 8 ], %g1
     fd4:	83 38 60 02 	sra  %g1, 2, %g1
     fd8:	c8 04 60 04 	ld  [ %l1 + 4 ], %g4
     fdc:	80 a0 60 00 	cmp  %g1, 0
     fe0:	06 80 00 0c 	bl  1010 <main+0xa8>
     fe4:	c6 04 40 00 	ld  [ %l1 ], %g3
     fe8:	85 28 60 02 	sll  %g1, 2, %g2
     fec:	86 00 c0 02 	add  %g3, %g2, %g3
     ff0:	84 00 80 04 	add  %g2, %g4, %g2
     ff4:	c8 00 80 00 	ld  [ %g2 ], %g4
     ff8:	c8 20 c0 00 	st  %g4, [ %g3 ]
     ffc:	82 00 7f ff 	add  %g1, -1, %g1
    1000:	84 00 bf fc 	add  %g2, -4, %g2
    1004:	80 a0 7f ff 	cmp  %g1, -1
    1008:	12 bf ff fb 	bne  ff4 <main+0x8c>
    100c:	86 00 ff fc 	add  %g3, -4, %g3
    1010:	c2 04 60 20 	ld  [ %l1 + 0x20 ], %g1
    1014:	a4 04 a0 01 	inc  %l2
    1018:	80 a0 60 00 	cmp  %g1, 0
    101c:	12 bf ff e6 	bne  fb4 <main+0x4c>
    1020:	a2 04 60 20 	add  %l1, 0x20, %l1
    1024:	82 10 00 10 	mov  %l0, %g1
    1028:	84 10 00 0e 	mov  %sp, %g2
    102c:	86 10 00 1e 	mov  %fp, %g3
    1030:	89 48 00 00 	rd  %psr, %g4
    1034:	88 29 20 1f 	andn  %g4, 0x1f, %g4
    1038:	81 89 20 00 	mov  %g4, %psr
    103c:	01 00 00 00 	nop 
    1040:	01 00 00 00 	nop 
    1044:	01 00 00 00 	nop 
    1048:	88 10 20 02 	mov  2, %g4	! 2 <_start_svt_real+0x2>
    104c:	81 91 20 00 	mov  %g4, %wim
    1050:	01 00 00 00 	nop 
    1054:	01 00 00 00 	nop 
    1058:	01 00 00 00 	nop 
    105c:	9c 10 00 02 	mov  %g2, %sp
    1060:	bc 10 00 03 	mov  %g3, %fp
    1064:	81 c0 40 00 	jmp  %g1
    1068:	01 00 00 00 	nop 
    106c:	9f c4 00 00 	call  %l0
    1070:	01 00 00 00 	nop 
    1074:	81 c7 e0 08 	ret 
    1078:	81 e8 00 00 	restore 
    107c:	7f ff ff 75 	call  e50 <putsx>
    1080:	90 10 00 1d 	mov  %i5, %o0
    1084:	91 2c a0 05 	sll  %l2, 5, %o0
    1088:	90 02 20 10 	add  %o0, 0x10, %o0
    108c:	7f ff ff 71 	call  e50 <putsx>
    1090:	90 05 00 08 	add  %l4, %o0, %o0
    1094:	7f ff ff 6f 	call  e50 <putsx>
    1098:	90 10 00 17 	mov  %l7, %o0
    109c:	7f ff ff a1 	call  f20 <puthex>
    10a0:	d0 04 60 04 	ld  [ %l1 + 4 ], %o0
    10a4:	7f ff ff 6b 	call  e50 <putsx>
    10a8:	90 10 00 16 	mov  %l6, %o0
    10ac:	7f ff ff 9d 	call  f20 <puthex>
    10b0:	d0 04 40 00 	ld  [ %l1 ], %o0
    10b4:	7f ff ff 67 	call  e50 <putsx>
    10b8:	90 10 00 15 	mov  %l5, %o0
    10bc:	10 bf ff c6 	b  fd4 <main+0x6c>
    10c0:	c2 04 60 08 	ld  [ %l1 + 8 ], %g1

000010c4 <bdinit1>:
    10c4:	81 c3 e0 08 	retl 
    10c8:	01 00 00 00 	nop 

000010cc <bdinit2>:
    10cc:	81 c3 e0 08 	retl 
    10d0:	01 00 00 00 	nop 
	...

000010e0 <freq>:
    10e0:	00 00 00 32 	unimp  0x32

000010e4 <freqkhz>:
    10e4:	00 00 c3 50 	unimp  0xc350

000010e8 <bmsg>:
    10e8:	00 00 00 01 	unimp  0x1

000010ec <_iserc32>:
    10ec:	00 00 00 00 	unimp  0

000010f0 <_doedac>:
    10f0:	00 00 00 00 	unimp  0

000010f4 <_doft>:
    10f4:	00 00 00 00 	unimp  0

000010f8 <_sparcleon0>:
    10f8:	00 00 00 00 	unimp  0

000010fc <_mpstart>:
    10fc:	00 00 00 00 	unimp  0

00001100 <_mpirqsel0>:
    1100:	00 00 00 00 	unimp  0

00001104 <_mpirqsel1>:
    1104:	00 00 00 00 	unimp  0

00001108 <_dsustart>:
    1108:	90 00 00 00 	add  %g0, %g0, %o0

0000110c <_dsutrace>:
    110c:	00 00 00 00 	unimp  0

00001110 <_nopnp>:
    1110:	00 00 00 00 	unimp  0

00001114 <_pnp>:
    1114:	ff ff f8 00 	unknown

00001118 <_mp>:
    1118:	00 00 00 00 	unimp  0

0000111c <_dsuctrl>:
    111c:	00 00 00 cf 	unimp  0xcf

00001120 <_memcfg1>:
    1120:	10 79 80 22 	unknown

00001124 <_memcfg2>:
    1124:	08 20 10 20 	unknown

00001128 <ftsdctrl64_cfg>:
    1128:	00 00 00 00 	unimp  0

0000112c <ftsdctrl64_pwr>:
    112c:	00 00 00 00 	unimp  0

00001130 <ftsdctrl64_edac>:
    1130:	00 00 00 00 	unimp  0

00001134 <_ddr2spa_cfg1>:
    1134:	91 a0 82 bc 	unknown

00001138 <_ddr2spa_cfg3>:
    1138:	02 29 00 00 	unknown

0000113c <_ddr2spa_cfg4>:
    113c:	00 00 00 00 	unimp  0

00001140 <_ddrspa_cfg1>:
    1140:	a1 a0 82 bc 	unknown

00001144 <_sdctrl_sdcfg>:
    1144:	00 00 00 00 	unimp  0

00001148 <_spimcfg>:
    1148:	00 00 00 00 	unimp  0

0000114c <_uart>:
    114c:	00 00 01 45 	unimp  0x145

00001150 <_uaddr>:
    1150:	80 00 01 00 	unknown

00001154 <_uartnr>:
    1154:	00 00 00 01 	unimp  0x1

00001158 <_dsuuart>:
    1158:	00 00 00 00 	unimp  0

0000115c <_memcfg3>:
    115c:	00 00 00 00 	unimp  0

00001160 <noinit>:
    1160:	00 00 00 00 	unimp  0

00001164 <_clean_ram0>:
    1164:	00 00 00 00 	unimp  0

00001168 <_clean_ram0_size>:
    1168:	00 00 00 00 	unimp  0

0000116c <_clean_ram1>:
    116c:	00 00 00 00 	unimp  0

00001170 <_clean_ram1_size>:
    1170:	00 00 00 00 	unimp  0

00001174 <_entry>:
    1174:	00 00 00 00 	unimp  0

00001178 <ramsize>:
    1178:	00 20 00 00 	unimp  0xffe00000

0000117c <_stack>:
    117c:	8f 00 ff e0 	taddcc  %g3, -32, %g7

00001180 <_memcaddr>:
    1180:	80 00 00 00 	add  %g0, %g0, %g0

00001184 <_gptaddr>:
    1184:	80 00 03 00 	unknown

00001188 <_irqmpaddr>:
    1188:	80 00 02 00 	unknown

0000118c <_dsuuart_addr>:
    118c:	80 00 07 00 	unknown

00001190 <configmsg>:
    1190:	20 20 73 79 	unknown
    1194:	73 74 65 6d 	call  cdd1a748 <LEON_REG+0x4dd1a748>
    1198:	20 63 6c 6f 	unknown
    119c:	63 6b 20 20 	call  8dac921c <LEON_REG+0xdac921c>
    11a0:	20 3a 20 35 	unknown
    11a4:	30 2e 30 20 	unknown
    11a8:	4d 48 7a 0a 	call  3521f9d0 <RAM_END+0x32e1f9d0>
    11ac:	0d 20 20 62 	sethi  %hi(0x80818800), %g6
    11b0:	61 75 64 20 	call  85d5a230 <LEON_REG+0x5d5a230>
    11b4:	72 61 74 65 	call  c985e348 <LEON_REG+0x4985e348>
    11b8:	20 20 20 20 	unknown
    11bc:	20 20 3a 20 	unknown
    11c0:	31 39 31 37 	sethi  %hi(0xe4c4dc00), %i0
    11c4:	31 20 62 61 	sethi  %hi(0x81898400), %i0
    11c8:	75 64 0a 0d 	call  d59039fc <LEON_REG+0x559039fc>
    11cc:	20 20 70 72 	unknown
    11d0:	6f 6d 20 20 	call  bdb49250 <LEON_REG+0x3db49250>
    11d4:	20 20 20 20 	unknown
    11d8:	20 20 20 20 	unknown
    11dc:	20 3a 20 35 	unknown
    11e0:	31 32 20 4b 	sethi  %hi(0xc8812c00), %i0
    11e4:	2c 20 28 32 	unknown
    11e8:	2f 32 29 20 	sethi  %hi(0xc8a48000), %l7
    11ec:	77 73 20 28 	call  ddcc928c <LEON_REG+0x5dcc928c>
    11f0:	72 2f 77 29 	call  c8bdee94 <LEON_REG+0x48bdee94>
    11f4:	0a 0d 20 20 	unknown
    11f8:	73 72 61 6d 	call  cdc997ac <LEON_REG+0x4dc997ac>
    11fc:	20 20 20 20 	unknown
    1200:	20 20 20 20 	unknown
    1204:	20 20 20 3a 	unknown
    1208:	20 32 30 34 	unknown
    120c:	38 20 4b 2c 	unknown
    1210:	20 31 20 62 	unknown
    1214:	61 6e 6b 28 	call  85b9beb4 <LEON_REG+0x5b9beb4>
    1218:	73 29 2c 20 	call  cca4c298 <LEON_REG+0x4ca4c298>
    121c:	30 2f 30 20 	unknown
    1220:	77 73 20 28 	call  ddcc92c0 <LEON_REG+0x5dcc92c0>
    1224:	72 2f 77 29 	call  c8bdeec8 <LEON_REG+0x48bdeec8>
    1228:	0a 0d 00 00 	unknown
    122c:	01 00 00 00 	nop 
    1230:	01 00 00 00 	nop 
    1234:	01 00 00 00 	nop 
    1238:	01 00 00 00 	nop 
    123c:	01 00 00 00 	nop 

00001240 <_section0>:
    1240:	0d 23 80 26 	sethi  %hi(0x8e009800), %g6
    1244:	81 c1 a0 f0 	jmp  %g6 + 0xf0	! 8e0098f0 <LEON_REG+0xe0098f0>
    1248:	01 00 00 00 	nop 
    124c:	9d e3 bf c0 	save  %sp, -64, %sp
    1250:	05 23 c0 02 	sethi  %hi(0x8f000800), %g2
    1254:	84 10 a2 e0 	or  %g2, 0x2e0, %g2	! 8f000ae0 <LEON_REG+0xf000ae0>
    1258:	07 23 c0 04 	sethi  %hi(0x8f001000), %g3
    125c:	86 10 e2 78 	or  %g3, 0x278, %g3	! 8f001278 <LEON_REG+0xf001278>
    1260:	82 10 00 00 	mov  %g0, %g1
    1264:	86 20 c0 02 	sub  %g3, %g2, %g3
    1268:	86 a0 e0 08 	subcc  %g3, 8, %g3
    126c:	36 bf ff ff 	bge,a   1268 <_section0+0x28>
    1270:	c0 38 80 03 	std  %g0, [ %g2 + %g3 ]
    1274:	11 23 c0 04 	sethi  %hi(0x8f001000), %o0
    1278:	90 12 22 78 	or  %o0, 0x278, %o0	! 8f001278 <LEON_REG+0xf001278>
    127c:	c0 22 00 00 	clr  [ %o0 ]
    1280:	40 00 25 09 	call  a6a4 <_section0+0x9464>
    1284:	01 00 00 00 	nop 
    1288:	40 00 25 09 	call  a6ac <_section0+0x946c>
    128c:	01 00 00 00 	nop 
    1290:	40 00 26 62 	call  ac18 <_section0+0x99d8>
    1294:	01 00 00 00 	nop 
    1298:	11 23 80 2a 	sethi  %hi(0x8e00a800), %o0
    129c:	90 12 22 fc 	or  %o0, 0x2fc, %o0	! 8e00aafc <LEON_REG+0xe00aafc>
    12a0:	40 00 02 5b 	call  1c0c <_section0+0x9cc>
    12a4:	01 00 00 00 	nop 
    12a8:	40 00 2a 9e 	call  bd20 <_section0+0xaae0>
    12ac:	01 00 00 00 	nop 
    12b0:	40 00 02 4f 	call  1bec <_section0+0x9ac>
    12b4:	01 00 00 00 	nop 
    12b8:	40 00 24 ff 	call  a6b4 <_section0+0x9474>
    12bc:	01 00 00 00 	nop 
    12c0:	81 c7 e0 08 	ret 
    12c4:	81 e8 00 00 	restore 
    12c8:	9d e3 bf 98 	save  %sp, -104, %sp
    12cc:	23 23 c0 02 	sethi  %hi(0x8f000800), %l1
    12d0:	c2 0c 62 e0 	ldub  [ %l1 + 0x2e0 ], %g1	! 8f000ae0 <LEON_REG+0xf000ae0>
    12d4:	80 a0 60 00 	cmp  %g1, 0
    12d8:	12 80 00 15 	bne  132c <_section0+0xec>
    12dc:	21 23 c0 00 	sethi  %hi(0x8f000000), %l0
    12e0:	10 80 00 05 	b  12f4 <_section0+0xb4>
    12e4:	c2 04 20 0c 	ld  [ %l0 + 0xc ], %g1	! 8f00000c <LEON_REG+0xf00000c>
    12e8:	9f c3 40 00 	call  %o5
    12ec:	c2 24 20 0c 	st  %g1, [ %l0 + 0xc ]
    12f0:	c2 04 20 0c 	ld  [ %l0 + 0xc ], %g1
    12f4:	da 00 40 00 	ld  [ %g1 ], %o5
    12f8:	80 a3 60 00 	cmp  %o5, 0
    12fc:	12 bf ff fb 	bne  12e8 <_section0+0xa8>
    1300:	82 00 60 04 	add  %g1, 4, %g1
    1304:	03 00 00 00 	sethi  %hi(0), %g1
    1308:	82 10 60 00 	mov  %g1, %g1	! 0 <_start_svt_real>
    130c:	80 a0 60 00 	cmp  %g1, 0
    1310:	02 80 00 06 	be  1328 <_section0+0xe8>
    1314:	82 10 20 01 	mov  1, %g1
    1318:	11 23 80 29 	sethi  %hi(0x8e00a400), %o0
    131c:	5c 7f ff c9 	call  72001240 <RAM_END+0x6fc01240>
    1320:	90 12 22 90 	or  %o0, 0x290, %o0	! 8e00a690 <LEON_REG+0xe00a690>
    1324:	82 10 20 01 	mov  1, %g1
    1328:	c2 2c 62 e0 	stb  %g1, [ %l1 + 0x2e0 ]
    132c:	81 c7 e0 08 	ret 
    1330:	81 e8 00 00 	restore 
    1334:	9d e3 bf 98 	save  %sp, -104, %sp
    1338:	81 c7 e0 08 	ret 
    133c:	81 e8 00 00 	restore 
    1340:	9d e3 bf 98 	save  %sp, -104, %sp
    1344:	03 00 00 00 	sethi  %hi(0), %g1
    1348:	82 10 60 00 	mov  %g1, %g1	! 0 <_start_svt_real>
    134c:	11 23 80 29 	sethi  %hi(0x8e00a400), %o0
    1350:	13 23 c0 02 	sethi  %hi(0x8f000800), %o1
    1354:	80 a0 60 00 	cmp  %g1, 0
    1358:	90 12 22 90 	or  %o0, 0x290, %o0
    135c:	02 80 00 04 	be  136c <_section0+0x12c>
    1360:	92 12 62 e4 	or  %o1, 0x2e4, %o1
    1364:	5c 7f ff b7 	call  72001240 <RAM_END+0x6fc01240>
    1368:	01 00 00 00 	nop 
    136c:	1b 23 c0 04 	sethi  %hi(0x8f001000), %o5
    1370:	c2 03 62 78 	ld  [ %o5 + 0x278 ], %g1	! 8f001278 <LEON_REG+0xf001278>
    1374:	80 a0 60 00 	cmp  %g1, 0
    1378:	02 80 00 09 	be  139c <_section0+0x15c>
    137c:	b0 13 62 78 	or  %o5, 0x278, %i0
    1380:	03 00 00 00 	sethi  %hi(0), %g1
    1384:	82 10 60 00 	mov  %g1, %g1	! 0 <_start_svt_real>
    1388:	80 a0 60 00 	cmp  %g1, 0
    138c:	02 80 00 04 	be  139c <_section0+0x15c>
    1390:	01 00 00 00 	nop 
    1394:	5c 7f ff ab 	call  72001240 <RAM_END+0x6fc01240>
    1398:	81 e8 00 00 	restore 
    139c:	01 00 00 00 	nop 
    13a0:	81 c7 e0 08 	ret 
    13a4:	81 e8 00 00 	restore 
    13a8:	9d e3 bf 98 	save  %sp, -104, %sp
    13ac:	81 c7 e0 08 	ret 
    13b0:	81 e8 00 00 	restore 
    13b4:	9a 10 00 09 	mov  %o1, %o5
    13b8:	80 a2 20 00 	cmp  %o0, 0
    13bc:	02 80 00 17 	be  1418 <_section0+0x1d8>
    13c0:	82 10 00 09 	mov  %o1, %g1
    13c4:	c2 02 00 00 	ld  [ %o0 ], %g1
    13c8:	80 a0 60 00 	cmp  %g1, 0
    13cc:	22 80 00 13 	be,a   1418 <_section0+0x1d8>
    13d0:	82 10 20 01 	mov  1, %g1
    13d4:	d2 02 20 08 	ld  [ %o0 + 8 ], %o1
    13d8:	82 02 40 01 	add  %o1, %g1, %g1
    13dc:	80 a2 40 0d 	cmp  %o1, %o5
    13e0:	18 80 00 05 	bgu  13f4 <_section0+0x1b4>
    13e4:	82 00 7f ff 	add  %g1, -1, %g1
    13e8:	80 a0 40 0d 	cmp  %g1, %o5
    13ec:	3a 80 00 09 	bcc,a   1410 <_section0+0x1d0>
    13f0:	9a 23 40 09 	sub  %o5, %o1, %o5
    13f4:	90 02 20 0c 	add  %o0, 0xc, %o0
    13f8:	c2 02 00 00 	ld  [ %o0 ], %g1
    13fc:	80 a0 60 00 	cmp  %g1, 0
    1400:	32 bf ff f6 	bne,a   13d8 <_section0+0x198>
    1404:	d2 02 20 08 	ld  [ %o0 + 8 ], %o1
    1408:	10 80 00 04 	b  1418 <_section0+0x1d8>
    140c:	82 10 20 01 	mov  1, %g1
    1410:	c2 02 20 04 	ld  [ %o0 + 4 ], %g1
    1414:	82 03 40 01 	add  %o5, %g1, %g1
    1418:	81 c3 e0 08 	retl 
    141c:	90 10 00 01 	mov  %g1, %o0
    1420:	9d e3 bf 98 	save  %sp, -104, %sp
    1424:	c2 0e 80 00 	ldub  [ %i2 ], %g1
    1428:	c2 2e e0 11 	stb  %g1, [ %i3 + 0x11 ]
    142c:	da 06 80 00 	ld  [ %i2 ], %o5
    1430:	83 33 60 0c 	srl  %o5, 0xc, %g1
    1434:	82 08 6f ff 	and  %g1, 0xfff, %g1
    1438:	9b 33 60 05 	srl  %o5, 5, %o5
    143c:	e4 06 e0 14 	ld  [ %i3 + 0x14 ], %l2
    1440:	c2 36 e0 12 	sth  %g1, [ %i3 + 0x12 ]
    1444:	9a 0b 60 1f 	and  %o5, 0x1f, %o5
    1448:	da 2c a0 01 	stb  %o5, [ %l2 + 1 ]
    144c:	c2 06 80 00 	ld  [ %i2 ], %g1
    1450:	82 08 60 1f 	and  %g1, 0x1f, %g1
    1454:	c2 2c 80 00 	stb  %g1, [ %l2 ]
    1458:	da 06 a0 04 	ld  [ %i2 + 4 ], %o5
    145c:	da 24 a0 28 	st  %o5, [ %l2 + 0x28 ]
    1460:	c2 06 a0 08 	ld  [ %i2 + 8 ], %g1
    1464:	c2 24 a0 2c 	st  %g1, [ %l2 + 0x2c ]
    1468:	da 06 a0 0c 	ld  [ %i2 + 0xc ], %o5
    146c:	03 00 00 3f 	sethi  %hi(0xfc00), %g1
    1470:	da 24 a0 30 	st  %o5, [ %l2 + 0x30 ]
    1474:	a6 10 63 f0 	or  %g1, 0x3f0, %l3
    1478:	a0 10 20 00 	clr  %l0
    147c:	a3 2c 20 02 	sll  %l0, 2, %l1
    1480:	82 04 40 1a 	add  %l1, %i2, %g1
    1484:	f6 00 60 10 	ld  [ %g1 + 0x10 ], %i3
    1488:	9a 0e c0 13 	and  %i3, %l3, %o5
    148c:	95 2b 60 10 	sll  %o5, 0x10, %o2
    1490:	96 0e e0 0f 	and  %i3, 0xf, %o3
    1494:	80 a6 e0 00 	cmp  %i3, 0
    1498:	9a 10 20 00 	clr  %o5
    149c:	02 80 00 16 	be  14f4 <_section0+0x2b4>
    14a0:	98 10 20 00 	clr  %o4
    14a4:	82 38 00 1b 	xnor  %g0, %i3, %g1
    14a8:	83 30 60 04 	srl  %g1, 4, %g1
    14ac:	82 08 6f ff 	and  %g1, 0xfff, %g1
    14b0:	98 0a 80 1b 	and  %o2, %i3, %o4
    14b4:	83 28 60 08 	sll  %g1, 8, %g1
    14b8:	82 10 60 ff 	or  %g1, 0xff, %g1
    14bc:	92 10 00 0c 	mov  %o4, %o1
    14c0:	90 10 00 19 	mov  %i1, %o0
    14c4:	80 a2 e0 03 	cmp  %o3, 3
    14c8:	99 33 20 0c 	srl  %o4, 0xc, %o4
    14cc:	12 80 00 04 	bne  14dc <_section0+0x29c>
    14d0:	9a 00 60 01 	add  %g1, 1, %o5
    14d4:	10 80 00 08 	b  14f4 <_section0+0x2b4>
    14d8:	98 13 00 18 	or  %o4, %i0, %o4
    14dc:	7f ff ff b6 	call  13b4 <_section0+0x174>
    14e0:	01 00 00 00 	nop 
    14e4:	83 36 e0 04 	srl  %i3, 4, %g1
    14e8:	83 28 60 14 	sll  %g1, 0x14, %g1
    14ec:	98 10 00 08 	mov  %o0, %o4
    14f0:	9a 20 00 01 	neg  %g1, %o5
    14f4:	82 04 40 12 	add  %l1, %l2, %g1
    14f8:	a0 04 20 01 	inc  %l0
    14fc:	da 20 60 14 	st  %o5, [ %g1 + 0x14 ]
    1500:	80 a4 20 03 	cmp  %l0, 3
    1504:	04 bf ff de 	ble  147c <_section0+0x23c>
    1508:	d8 20 60 04 	st  %o4, [ %g1 + 4 ]
    150c:	81 c7 e0 08 	ret 
    1510:	81 e8 00 00 	restore 
    1514:	9a 10 20 00 	clr  %o5
    1518:	99 2b 60 02 	sll  %o5, 2, %o4
    151c:	c2 02 00 0c 	ld  [ %o0 + %o4 ], %g1
    1520:	80 a0 60 00 	cmp  %g1, 0
    1524:	02 80 00 06 	be  153c <_section0+0x2fc>
    1528:	9a 03 60 01 	inc  %o5
    152c:	80 a3 60 0f 	cmp  %o5, 0xf
    1530:	24 bf ff fb 	ble,a   151c <_section0+0x2dc>
    1534:	99 2b 60 02 	sll  %o5, 2, %o4
    1538:	30 80 00 02 	b,a   1540 <_section0+0x300>
    153c:	d2 22 00 0c 	st  %o1, [ %o0 + %o4 ]
    1540:	81 c3 e0 08 	retl 
    1544:	01 00 00 00 	nop 
    1548:	9d e3 be a0 	save  %sp, -352, %sp
    154c:	f6 27 a0 50 	st  %i3, [ %fp + 0x50 ]
    1550:	80 a6 60 00 	cmp  %i1, 0
    1554:	f4 27 a0 4c 	st  %i2, [ %fp + 0x4c ]
    1558:	f8 27 a0 54 	st  %i4, [ %fp + 0x54 ]
    155c:	fa 27 a0 58 	st  %i5, [ %fp + 0x58 ]
    1560:	02 80 01 0e 	be  1998 <_section0+0x758>
    1564:	b6 10 20 40 	mov  0x40, %i3
    1568:	b6 10 20 10 	mov  0x10, %i3
    156c:	ae 10 20 00 	clr  %l7
    1570:	03 00 03 fc 	sethi  %hi(0xff000), %g1
    1574:	80 a5 c0 1b 	cmp  %l7, %i3
    1578:	16 80 00 43 	bge  1684 <_section0+0x444>
    157c:	b2 16 00 01 	or  %i0, %g1, %i1
    1580:	a0 10 20 00 	clr  %l0
    1584:	a2 10 20 00 	clr  %l1
    1588:	10 80 00 05 	b  159c <_section0+0x35c>
    158c:	a4 07 bf b8 	add  %fp, -72, %l2
    1590:	80 a5 c0 1b 	cmp  %l7, %i3
    1594:	36 80 00 3d 	bge,a   1688 <_section0+0x448>
    1598:	ae 10 20 00 	clr  %l7
    159c:	d8 06 40 00 	ld  [ %i1 ], %o4
    15a0:	d8 27 bf d8 	st  %o4, [ %fp + -40 ]
    15a4:	c2 06 60 04 	ld  [ %i1 + 4 ], %g1
    15a8:	c2 27 bf dc 	st  %g1, [ %fp + -36 ]
    15ac:	da 06 60 08 	ld  [ %i1 + 8 ], %o5
    15b0:	da 27 bf e0 	st  %o5, [ %fp + -32 ]
    15b4:	c2 06 60 0c 	ld  [ %i1 + 0xc ], %g1
    15b8:	c2 27 bf e4 	st  %g1, [ %fp + -28 ]
    15bc:	da 06 60 10 	ld  [ %i1 + 0x10 ], %o5
    15c0:	da 27 bf e8 	st  %o5, [ %fp + -24 ]
    15c4:	c2 06 60 14 	ld  [ %i1 + 0x14 ], %g1
    15c8:	c2 27 bf ec 	st  %g1, [ %fp + -20 ]
    15cc:	da 06 60 18 	ld  [ %i1 + 0x18 ], %o5
    15d0:	da 27 bf f0 	st  %o5, [ %fp + -16 ]
    15d4:	c2 06 60 1c 	ld  [ %i1 + 0x1c ], %g1
    15d8:	90 10 00 18 	mov  %i0, %o0
    15dc:	d2 07 a0 4c 	ld  [ %fp + 0x4c ], %o1
    15e0:	94 07 bf d8 	add  %fp, -40, %o2
    15e4:	96 10 00 12 	mov  %l2, %o3
    15e8:	ae 05 e0 01 	inc  %l7
    15ec:	b2 06 60 20 	add  %i1, 0x20, %i1
    15f0:	80 a3 20 00 	cmp  %o4, 0
    15f4:	02 bf ff e7 	be  1590 <_section0+0x350>
    15f8:	c2 27 bf f4 	st  %g1, [ %fp + -12 ]
    15fc:	e0 3f bf c8 	std  %l0, [ %fp + -56 ]
    1600:	82 07 bf 80 	add  %fp, -128, %g1
    1604:	9a 10 20 01 	mov  1, %o5
    1608:	c2 27 bf cc 	st  %g1, [ %fp + -52 ]
    160c:	da 2f bf c8 	stb  %o5, [ %fp + -56 ]
    1610:	e0 3f bf b8 	std  %l0, [ %fp + -72 ]
    1614:	e0 3f bf c0 	std  %l0, [ %fp + -64 ]
    1618:	e0 3f bf 80 	std  %l0, [ %fp + -128 ]
    161c:	e0 3f bf 88 	std  %l0, [ %fp + -120 ]
    1620:	e0 3f bf 90 	std  %l0, [ %fp + -112 ]
    1624:	e0 3f bf 98 	std  %l0, [ %fp + -104 ]
    1628:	e0 3f bf a0 	std  %l0, [ %fp + -96 ]
    162c:	e0 3f bf a8 	std  %l0, [ %fp + -88 ]
    1630:	7f ff ff 7c 	call  1420 <_section0+0x1e0>
    1634:	c0 27 bf b0 	clr  [ %fp + -80 ]
    1638:	c2 0f bf c9 	ldub  [ %fp + -55 ], %g1
    163c:	d8 07 a0 5c 	ld  [ %fp + 0x5c ], %o4
    1640:	80 a0 40 0c 	cmp  %g1, %o4
    1644:	12 bf ff d4 	bne  1594 <_section0+0x354>
    1648:	80 a5 c0 1b 	cmp  %l7, %i3
    164c:	c2 17 bf ca 	lduh  [ %fp + -54 ], %g1
    1650:	da 07 a0 60 	ld  [ %fp + 0x60 ], %o5
    1654:	90 10 00 12 	mov  %l2, %o0
    1658:	80 a0 40 0d 	cmp  %g1, %o5
    165c:	12 bf ff cd 	bne  1590 <_section0+0x350>
    1660:	d2 07 a0 58 	ld  [ %fp + 0x58 ], %o1
    1664:	c2 07 a0 54 	ld  [ %fp + 0x54 ], %g1
    1668:	9f c0 40 00 	call  %g1
    166c:	01 00 00 00 	nop 
    1670:	80 a2 20 00 	cmp  %o0, 0
    1674:	02 bf ff c8 	be  1594 <_section0+0x354>
    1678:	80 a5 c0 1b 	cmp  %l7, %i3
    167c:	10 80 00 cf 	b  19b8 <_section0+0x778>
    1680:	b0 10 20 01 	mov  1, %i0
    1684:	ae 10 20 00 	clr  %l7
    1688:	03 00 03 fe 	sethi  %hi(0xff800), %g1
    168c:	80 a5 c0 1b 	cmp  %l7, %i3
    1690:	16 80 00 85 	bge  18a4 <_section0+0x664>
    1694:	b2 16 00 01 	or  %i0, %g1, %i1
    1698:	a8 10 20 00 	clr  %l4
    169c:	10 80 00 06 	b  16b4 <_section0+0x474>
    16a0:	aa 10 20 00 	clr  %l5
    16a4:	ae 05 e0 01 	inc  %l7
    16a8:	80 a5 c0 1b 	cmp  %l7, %i3
    16ac:	16 80 00 7e 	bge  18a4 <_section0+0x664>
    16b0:	b2 06 60 20 	add  %i1, 0x20, %i1
    16b4:	d8 06 40 00 	ld  [ %i1 ], %o4
    16b8:	d8 27 bf d8 	st  %o4, [ %fp + -40 ]
    16bc:	c2 06 60 04 	ld  [ %i1 + 4 ], %g1
    16c0:	c2 27 bf dc 	st  %g1, [ %fp + -36 ]
    16c4:	da 06 60 08 	ld  [ %i1 + 8 ], %o5
    16c8:	da 27 bf e0 	st  %o5, [ %fp + -32 ]
    16cc:	c2 06 60 0c 	ld  [ %i1 + 0xc ], %g1
    16d0:	c2 27 bf e4 	st  %g1, [ %fp + -28 ]
    16d4:	da 06 60 10 	ld  [ %i1 + 0x10 ], %o5
    16d8:	da 27 bf e8 	st  %o5, [ %fp + -24 ]
    16dc:	c2 06 60 14 	ld  [ %i1 + 0x14 ], %g1
    16e0:	c2 27 bf ec 	st  %g1, [ %fp + -20 ]
    16e4:	da 06 60 18 	ld  [ %i1 + 0x18 ], %o5
    16e8:	da 27 bf f0 	st  %o5, [ %fp + -16 ]
    16ec:	c2 06 60 1c 	ld  [ %i1 + 0x1c ], %g1
    16f0:	80 a3 20 00 	cmp  %o4, 0
    16f4:	02 bf ff ec 	be  16a4 <_section0+0x464>
    16f8:	c2 27 bf f4 	st  %g1, [ %fp + -12 ]
    16fc:	e8 3f bf 78 	std  %l4, [ %fp + -136 ]
    1700:	82 07 bf 30 	add  %fp, -208, %g1
    1704:	9a 10 20 01 	mov  1, %o5
    1708:	c2 27 bf 7c 	st  %g1, [ %fp + -132 ]
    170c:	da 2f bf 78 	stb  %o5, [ %fp + -136 ]
    1710:	e8 3f bf 68 	std  %l4, [ %fp + -152 ]
    1714:	e8 3f bf 70 	std  %l4, [ %fp + -144 ]
    1718:	e8 3f bf 30 	std  %l4, [ %fp + -208 ]
    171c:	e8 3f bf 38 	std  %l4, [ %fp + -200 ]
    1720:	e8 3f bf 40 	std  %l4, [ %fp + -192 ]
    1724:	e8 3f bf 48 	std  %l4, [ %fp + -184 ]
    1728:	e8 3f bf 50 	std  %l4, [ %fp + -176 ]
    172c:	e8 3f bf 58 	std  %l4, [ %fp + -168 ]
    1730:	c0 27 bf 60 	clr  [ %fp + -160 ]
    1734:	90 10 00 18 	mov  %i0, %o0
    1738:	d2 07 a0 4c 	ld  [ %fp + 0x4c ], %o1
    173c:	94 07 bf d8 	add  %fp, -40, %o2
    1740:	7f ff ff 38 	call  1420 <_section0+0x1e0>
    1744:	96 07 bf 68 	add  %fp, -152, %o3
    1748:	c2 0f bf 79 	ldub  [ %fp + -135 ], %g1
    174c:	d8 07 a0 5c 	ld  [ %fp + 0x5c ], %o4
    1750:	80 a0 40 0c 	cmp  %g1, %o4
    1754:	02 80 00 56 	be  18ac <_section0+0x66c>
    1758:	c2 17 bf 7a 	lduh  [ %fp + -134 ], %g1
    175c:	c2 07 bf 78 	ld  [ %fp + -136 ], %g1
    1760:	17 00 00 40 	sethi  %hi(0x10000), %o3
    1764:	1b 3f c0 00 	sethi  %hi(0xff000000), %o5
    1768:	9a 28 40 0d 	andn  %g1, %o5, %o5
    176c:	98 12 e0 20 	or  %o3, 0x20, %o4
    1770:	80 a3 40 0c 	cmp  %o5, %o4
    1774:	02 80 00 5b 	be  18e0 <_section0+0x6a0>
    1778:	82 12 e0 06 	or  %o3, 6, %g1
    177c:	80 a3 40 01 	cmp  %o5, %g1
    1780:	32 bf ff ca 	bne,a   16a8 <_section0+0x468>
    1784:	ae 05 e0 01 	inc  %l7
    1788:	da 07 bf 7c 	ld  [ %fp + -132 ], %o5
    178c:	f8 03 60 04 	ld  [ %o5 + 4 ], %i4
    1790:	03 00 03 fc 	sethi  %hi(0xff000), %g1
    1794:	a0 17 00 01 	or  %i4, %g1, %l0
    1798:	ac 10 20 00 	clr  %l6
    179c:	a4 10 20 00 	clr  %l2
    17a0:	a6 10 20 00 	clr  %l3
    17a4:	1b 23 80 29 	sethi  %hi(0x8e00a400), %o5
    17a8:	10 80 00 05 	b  17bc <_section0+0x57c>
    17ac:	f4 03 62 c0 	ld  [ %o5 + 0x2c0 ], %i2	! 8e00a6c0 <LEON_REG+0xe00a6c0>
    17b0:	80 a5 a0 0f 	cmp  %l6, 0xf
    17b4:	34 bf ff bd 	bg,a   16a8 <_section0+0x468>
    17b8:	ae 05 e0 01 	inc  %l7
    17bc:	d2 04 00 00 	ld  [ %l0 ], %o1
    17c0:	9b 32 60 05 	srl  %o1, 5, %o5
    17c4:	d2 27 bf d0 	st  %o1, [ %fp + -48 ]
    17c8:	d4 04 20 04 	ld  [ %l0 + 4 ], %o2
    17cc:	83 32 60 0c 	srl  %o1, 0xc, %g1
    17d0:	9e 0b 60 1f 	and  %o5, 0x1f, %o7
    17d4:	ba 08 6f ff 	and  %g1, 0xfff, %i5
    17d8:	97 32 a0 04 	srl  %o2, 4, %o3
    17dc:	1b 3f fc 00 	sethi  %hi(0xfff00000), %o5
    17e0:	9a 0a 80 0d 	and  %o2, %o5, %o5
    17e4:	96 0a ef ff 	and  %o3, 0xfff, %o3
    17e8:	98 0a 80 1a 	and  %o2, %i2, %o4
    17ec:	03 00 03 ff 	sethi  %hi(0xffc00), %g1
    17f0:	99 2b 20 04 	sll  %o4, 4, %o4
    17f4:	9b 33 60 0c 	srl  %o5, 0xc, %o5
    17f8:	97 2a e0 08 	sll  %o3, 8, %o3
    17fc:	82 10 63 ff 	or  %g1, 0x3ff, %g1
    1800:	9a 0b 40 0c 	and  %o5, %o4, %o5
    1804:	96 28 40 0b 	andn  %g1, %o3, %o3
    1808:	ac 05 a0 01 	inc  %l6
    180c:	a2 0a 60 1f 	and  %o1, 0x1f, %l1
    1810:	a0 04 20 08 	add  %l0, 8, %l0
    1814:	90 13 40 1c 	or  %o5, %i4, %o0
    1818:	96 02 e0 01 	inc  %o3
    181c:	99 32 60 18 	srl  %o1, 0x18, %o4
    1820:	80 a2 60 00 	cmp  %o1, 0
    1824:	02 bf ff e3 	be  17b0 <_section0+0x570>
    1828:	d4 27 bf d4 	st  %o2, [ %fp + -44 ]
    182c:	e4 3f bf 28 	std  %l2, [ %fp + -216 ]
    1830:	82 07 bf 08 	add  %fp, -248, %g1
    1834:	c2 27 bf 2c 	st  %g1, [ %fp + -212 ]
    1838:	e4 3f bf 08 	std  %l2, [ %fp + -248 ]
    183c:	9a 10 20 03 	mov  3, %o5
    1840:	c2 07 a0 5c 	ld  [ %fp + 0x5c ], %g1
    1844:	da 2f bf 28 	stb  %o5, [ %fp + -216 ]
    1848:	de 2f bf 09 	stb  %o7, [ %fp + -247 ]
    184c:	e2 2f bf 08 	stb  %l1, [ %fp + -248 ]
    1850:	d0 27 bf 0c 	st  %o0, [ %fp + -244 ]
    1854:	d6 27 bf 10 	st  %o3, [ %fp + -240 ]
    1858:	80 a3 00 01 	cmp  %o4, %g1
    185c:	e4 3f bf 18 	std  %l2, [ %fp + -232 ]
    1860:	e4 3f bf 20 	std  %l2, [ %fp + -224 ]
    1864:	d8 2f bf 29 	stb  %o4, [ %fp + -215 ]
    1868:	12 bf ff d2 	bne  17b0 <_section0+0x570>
    186c:	fa 37 bf 2a 	sth  %i5, [ %fp + -214 ]
    1870:	d8 07 a0 60 	ld  [ %fp + 0x60 ], %o4
    1874:	90 07 bf 18 	add  %fp, -232, %o0
    1878:	80 a7 40 0c 	cmp  %i5, %o4
    187c:	12 bf ff cd 	bne  17b0 <_section0+0x570>
    1880:	d2 07 a0 58 	ld  [ %fp + 0x58 ], %o1
    1884:	da 07 a0 54 	ld  [ %fp + 0x54 ], %o5
    1888:	9f c3 40 00 	call  %o5
    188c:	01 00 00 00 	nop 
    1890:	80 a2 20 00 	cmp  %o0, 0
    1894:	02 bf ff c8 	be  17b4 <_section0+0x574>
    1898:	80 a5 a0 0f 	cmp  %l6, 0xf
    189c:	10 80 00 47 	b  19b8 <_section0+0x778>
    18a0:	b0 10 20 01 	mov  1, %i0
    18a4:	10 80 00 45 	b  19b8 <_section0+0x778>
    18a8:	b0 10 20 00 	clr  %i0
    18ac:	da 07 a0 60 	ld  [ %fp + 0x60 ], %o5
    18b0:	80 a0 40 0d 	cmp  %g1, %o5
    18b4:	12 bf ff ab 	bne  1760 <_section0+0x520>
    18b8:	c2 07 bf 78 	ld  [ %fp + -136 ], %g1
    18bc:	90 07 bf 68 	add  %fp, -152, %o0
    18c0:	c2 07 a0 54 	ld  [ %fp + 0x54 ], %g1
    18c4:	9f c0 40 00 	call  %g1
    18c8:	d2 07 a0 58 	ld  [ %fp + 0x58 ], %o1
    18cc:	80 a2 20 00 	cmp  %o0, 0
    18d0:	02 bf ff a4 	be  1760 <_section0+0x520>
    18d4:	c2 07 bf 78 	ld  [ %fp + -136 ], %g1
    18d8:	10 80 00 38 	b  19b8 <_section0+0x778>
    18dc:	b0 10 20 01 	mov  1, %i0
    18e0:	da 07 bf 7c 	ld  [ %fp + -132 ], %o5
    18e4:	c2 0b 60 01 	ldub  [ %o5 + 1 ], %g1
    18e8:	80 a0 60 00 	cmp  %g1, 0
    18ec:	22 bf ff 6f 	be,a   16a8 <_section0+0x468>
    18f0:	ae 05 e0 01 	inc  %l7
    18f4:	d2 03 60 2c 	ld  [ %o5 + 0x2c ], %o1
    18f8:	7f ff fe af 	call  13b4 <_section0+0x174>
    18fc:	d0 07 a0 4c 	ld  [ %fp + 0x4c ], %o0
    1900:	d8 07 a0 50 	ld  [ %fp + 0x50 ], %o4
    1904:	80 a3 20 00 	cmp  %o4, 0
    1908:	02 80 00 14 	be  1958 <_section0+0x718>
    190c:	a0 10 00 08 	mov  %o0, %l0
    1910:	9a 10 20 00 	clr  %o5
    1914:	83 2b 60 02 	sll  %o5, 2, %g1
    1918:	d8 07 a0 50 	ld  [ %fp + 0x50 ], %o4
    191c:	c2 03 00 01 	ld  [ %o4 + %g1 ], %g1
    1920:	80 a0 60 00 	cmp  %g1, 0
    1924:	02 80 00 07 	be  1940 <_section0+0x700>
    1928:	9a 03 60 01 	inc  %o5
    192c:	80 a0 40 10 	cmp  %g1, %l0
    1930:	02 bf ff 5d 	be  16a4 <_section0+0x464>
    1934:	80 a3 60 0f 	cmp  %o5, 0xf
    1938:	04 bf ff f9 	ble  191c <_section0+0x6dc>
    193c:	83 2b 60 02 	sll  %o5, 2, %g1
    1940:	da 07 a0 50 	ld  [ %fp + 0x50 ], %o5
    1944:	80 a3 60 00 	cmp  %o5, 0
    1948:	02 80 00 04 	be  1958 <_section0+0x718>
    194c:	90 10 00 0d 	mov  %o5, %o0
    1950:	7f ff fe f1 	call  1514 <_section0+0x2d4>
    1954:	92 10 00 10 	mov  %l0, %o1
    1958:	d8 07 a0 60 	ld  [ %fp + 0x60 ], %o4
    195c:	c2 07 a0 5c 	ld  [ %fp + 0x5c ], %g1
    1960:	d8 23 a0 60 	st  %o4, [ %sp + 0x60 ]
    1964:	c2 23 a0 5c 	st  %g1, [ %sp + 0x5c ]
    1968:	90 10 00 10 	mov  %l0, %o0
    196c:	92 07 bf 68 	add  %fp, -152, %o1
    1970:	d4 07 a0 4c 	ld  [ %fp + 0x4c ], %o2
    1974:	d6 07 a0 50 	ld  [ %fp + 0x50 ], %o3
    1978:	d8 07 a0 54 	ld  [ %fp + 0x54 ], %o4
    197c:	7f ff fe f3 	call  1548 <_section0+0x308>
    1980:	da 07 a0 58 	ld  [ %fp + 0x58 ], %o5
    1984:	80 a2 20 00 	cmp  %o0, 0
    1988:	22 bf ff 48 	be,a   16a8 <_section0+0x468>
    198c:	ae 05 e0 01 	inc  %l7
    1990:	10 80 00 0a 	b  19b8 <_section0+0x778>
    1994:	b0 10 20 01 	mov  1, %i0
    1998:	c2 07 a0 50 	ld  [ %fp + 0x50 ], %g1
    199c:	80 a0 60 00 	cmp  %g1, 0
    19a0:	02 bf fe f3 	be  156c <_section0+0x32c>
    19a4:	90 10 00 01 	mov  %g1, %o0
    19a8:	7f ff fe db 	call  1514 <_section0+0x2d4>
    19ac:	92 10 00 18 	mov  %i0, %o1
    19b0:	10 bf fe f0 	b  1570 <_section0+0x330>
    19b4:	ae 10 20 00 	clr  %l7
    19b8:	81 c7 e0 08 	ret 
    19bc:	81 e8 00 00 	restore 
    19c0:	c2 02 40 00 	ld  [ %o1 ], %g1
    19c4:	80 a0 60 00 	cmp  %g1, 0
    19c8:	12 80 00 2c 	bne  1a78 <_section0+0x838>
    19cc:	9a 00 7f ff 	add  %g1, -1, %o5
    19d0:	c2 02 60 08 	ld  [ %o1 + 8 ], %g1
    19d4:	80 a0 60 03 	cmp  %g1, 3
    19d8:	02 80 00 2a 	be  1a80 <_section0+0x840>
    19dc:	d6 02 20 14 	ld  [ %o0 + 0x14 ], %o3
    19e0:	c2 02 c0 00 	ld  [ %o3 ], %g1
    19e4:	d4 02 60 0c 	ld  [ %o1 + 0xc ], %o2
    19e8:	c2 22 80 00 	st  %g1, [ %o2 ]
    19ec:	da 02 e0 04 	ld  [ %o3 + 4 ], %o5
    19f0:	da 22 a0 04 	st  %o5, [ %o2 + 4 ]
    19f4:	c2 02 e0 08 	ld  [ %o3 + 8 ], %g1
    19f8:	c2 22 a0 08 	st  %g1, [ %o2 + 8 ]
    19fc:	da 02 e0 0c 	ld  [ %o3 + 0xc ], %o5
    1a00:	da 22 a0 0c 	st  %o5, [ %o2 + 0xc ]
    1a04:	c2 02 e0 10 	ld  [ %o3 + 0x10 ], %g1
    1a08:	c2 22 a0 10 	st  %g1, [ %o2 + 0x10 ]
    1a0c:	da 02 e0 14 	ld  [ %o3 + 0x14 ], %o5
    1a10:	da 22 a0 14 	st  %o5, [ %o2 + 0x14 ]
    1a14:	c2 02 e0 18 	ld  [ %o3 + 0x18 ], %g1
    1a18:	c2 22 a0 18 	st  %g1, [ %o2 + 0x18 ]
    1a1c:	da 02 e0 1c 	ld  [ %o3 + 0x1c ], %o5
    1a20:	da 22 a0 1c 	st  %o5, [ %o2 + 0x1c ]
    1a24:	c2 02 e0 20 	ld  [ %o3 + 0x20 ], %g1
    1a28:	c2 22 a0 20 	st  %g1, [ %o2 + 0x20 ]
    1a2c:	da 02 e0 24 	ld  [ %o3 + 0x24 ], %o5
    1a30:	da 22 a0 24 	st  %o5, [ %o2 + 0x24 ]
    1a34:	c2 02 e0 28 	ld  [ %o3 + 0x28 ], %g1
    1a38:	c2 22 a0 28 	st  %g1, [ %o2 + 0x28 ]
    1a3c:	da 02 e0 2c 	ld  [ %o3 + 0x2c ], %o5
    1a40:	da 22 a0 2c 	st  %o5, [ %o2 + 0x2c ]
    1a44:	d8 02 e0 30 	ld  [ %o3 + 0x30 ], %o4
    1a48:	d8 22 a0 30 	st  %o4, [ %o2 + 0x30 ]
    1a4c:	c2 02 60 0c 	ld  [ %o1 + 0xc ], %g1
    1a50:	82 00 60 34 	add  %g1, 0x34, %g1
    1a54:	c2 22 60 0c 	st  %g1, [ %o1 + 0xc ]
    1a58:	c2 02 60 04 	ld  [ %o1 + 4 ], %g1
    1a5c:	82 00 7f ff 	add  %g1, -1, %g1
    1a60:	c2 22 60 04 	st  %g1, [ %o1 + 4 ]
    1a64:	80 a0 60 00 	cmp  %g1, 0
    1a68:	04 80 00 10 	ble  1aa8 <_section0+0x868>
    1a6c:	90 10 20 01 	mov  1, %o0
    1a70:	10 80 00 0e 	b  1aa8 <_section0+0x868>
    1a74:	90 10 20 00 	clr  %o0
    1a78:	10 bf ff fe 	b  1a70 <_section0+0x830>
    1a7c:	da 22 40 00 	st  %o5, [ %o1 ]
    1a80:	c2 02 c0 00 	ld  [ %o3 ], %g1
    1a84:	d4 02 60 0c 	ld  [ %o1 + 0xc ], %o2
    1a88:	c2 22 80 00 	st  %g1, [ %o2 ]
    1a8c:	da 02 e0 04 	ld  [ %o3 + 4 ], %o5
    1a90:	da 22 a0 04 	st  %o5, [ %o2 + 4 ]
    1a94:	d8 02 e0 08 	ld  [ %o3 + 8 ], %o4
    1a98:	d8 22 a0 08 	st  %o4, [ %o2 + 8 ]
    1a9c:	c2 02 60 0c 	ld  [ %o1 + 0xc ], %g1
    1aa0:	10 bf ff ed 	b  1a54 <_section0+0x814>
    1aa4:	82 00 60 0c 	add  %g1, 0xc, %g1
    1aa8:	81 c3 e0 08 	retl 
    1aac:	01 00 00 00 	nop 
    1ab0:	9d e3 bf 40 	save  %sp, -192, %sp
    1ab4:	98 10 20 00 	clr  %o4
    1ab8:	9a 10 20 00 	clr  %o5
    1abc:	d8 3f bf e0 	std  %o4, [ %fp + -32 ]
    1ac0:	d8 3f bf a8 	std  %o4, [ %fp + -88 ]
    1ac4:	d8 3f bf b0 	std  %o4, [ %fp + -80 ]
    1ac8:	d8 3f bf b8 	std  %o4, [ %fp + -72 ]
    1acc:	d8 3f bf c0 	std  %o4, [ %fp + -64 ]
    1ad0:	d8 3f bf c8 	std  %o4, [ %fp + -56 ]
    1ad4:	d8 3f bf d0 	std  %o4, [ %fp + -48 ]
    1ad8:	d8 3f bf d8 	std  %o4, [ %fp + -40 ]
    1adc:	a0 10 20 01 	mov  1, %l0
    1ae0:	82 10 20 03 	mov  3, %g1
    1ae4:	19 23 80 01 	sethi  %hi(0x8e000400), %o4
    1ae8:	f0 23 a0 5c 	st  %i0, [ %sp + 0x5c ]
    1aec:	c2 27 bf f0 	st  %g1, [ %fp + -16 ]
    1af0:	f4 27 bf f4 	st  %i2, [ %fp + -12 ]
    1af4:	f2 23 a0 60 	st  %i1, [ %sp + 0x60 ]
    1af8:	c0 27 bf e8 	clr  [ %fp + -24 ]
    1afc:	e0 27 bf ec 	st  %l0, [ %fp + -20 ]
    1b00:	98 13 23 80 	or  %o4, 0x380, %o4
    1b04:	11 3f fc 00 	sethi  %hi(0xfff00000), %o0
    1b08:	92 10 20 00 	clr  %o1
    1b0c:	94 10 20 00 	clr  %o2
    1b10:	96 07 bf a8 	add  %fp, -88, %o3
    1b14:	7f ff fe 8d 	call  1548 <_section0+0x308>
    1b18:	9a 07 bf e8 	add  %fp, -24, %o5
    1b1c:	f0 07 bf ec 	ld  [ %fp + -20 ], %i0
    1b20:	b0 24 00 18 	sub  %l0, %i0, %i0
    1b24:	81 c7 e0 08 	ret 
    1b28:	81 e8 00 00 	restore 
    1b2c:	9d e3 bf 88 	save  %sp, -120, %sp
    1b30:	a0 07 bf e8 	add  %fp, -24, %l0
    1b34:	92 10 20 0c 	mov  0xc, %o1
    1b38:	94 10 00 10 	mov  %l0, %o2
    1b3c:	7f ff ff dd 	call  1ab0 <_section0+0x870>
    1b40:	90 10 20 01 	mov  1, %o0
    1b44:	80 a2 20 01 	cmp  %o0, 1
    1b48:	92 10 20 11 	mov  0x11, %o1
    1b4c:	94 10 00 10 	mov  %l0, %o2
    1b50:	02 80 00 10 	be  1b90 <_section0+0x950>
    1b54:	90 10 20 01 	mov  1, %o0
    1b58:	7f ff ff d6 	call  1ab0 <_section0+0x870>
    1b5c:	01 00 00 00 	nop 
    1b60:	80 a2 20 01 	cmp  %o0, 1
    1b64:	94 10 00 10 	mov  %l0, %o2
    1b68:	92 10 20 0d 	mov  0xd, %o1
    1b6c:	02 80 00 12 	be  1bb4 <_section0+0x974>
    1b70:	90 10 20 01 	mov  1, %o0
    1b74:	7f ff ff cf 	call  1ab0 <_section0+0x870>
    1b78:	01 00 00 00 	nop 
    1b7c:	80 a2 20 01 	cmp  %o0, 1
    1b80:	12 80 00 19 	bne  1be4 <_section0+0x9a4>
    1b84:	da 07 bf ec 	ld  [ %fp + -20 ], %o5
    1b88:	10 80 00 16 	b  1be0 <_section0+0x9a0>
    1b8c:	03 23 c0 02 	sethi  %hi(0x8f000800), %g1
    1b90:	da 07 bf ec 	ld  [ %fp + -20 ], %o5
    1b94:	03 23 c0 02 	sethi  %hi(0x8f000800), %g1
    1b98:	7f ff ff c6 	call  1ab0 <_section0+0x870>
    1b9c:	da 20 62 88 	st  %o5, [ %g1 + 0x288 ]	! 8f000a88 <LEON_REG+0xf000a88>
    1ba0:	80 a2 20 01 	cmp  %o0, 1
    1ba4:	94 10 00 10 	mov  %l0, %o2
    1ba8:	92 10 20 0d 	mov  0xd, %o1
    1bac:	12 bf ff f2 	bne  1b74 <_section0+0x934>
    1bb0:	90 10 20 01 	mov  1, %o0
    1bb4:	d6 07 bf ec 	ld  [ %fp + -20 ], %o3
    1bb8:	98 02 e0 10 	add  %o3, 0x10, %o4
    1bbc:	03 23 c0 02 	sethi  %hi(0x8f000800), %g1
    1bc0:	1b 23 c0 02 	sethi  %hi(0x8f000800), %o5
    1bc4:	d8 20 62 7c 	st  %o4, [ %g1 + 0x27c ]
    1bc8:	7f ff ff ba 	call  1ab0 <_section0+0x870>
    1bcc:	d6 23 63 48 	st  %o3, [ %o5 + 0x348 ]
    1bd0:	80 a2 20 01 	cmp  %o0, 1
    1bd4:	12 80 00 04 	bne  1be4 <_section0+0x9a4>
    1bd8:	da 07 bf ec 	ld  [ %fp + -20 ], %o5
    1bdc:	03 23 c0 02 	sethi  %hi(0x8f000800), %g1
    1be0:	da 20 62 80 	st  %o5, [ %g1 + 0x280 ]	! 8f000a80 <LEON_REG+0xf000a80>
    1be4:	81 c7 e0 08 	ret 
    1be8:	81 e8 00 00 	restore 
    1bec:	9d e3 bf 98 	save  %sp, -104, %sp
    1bf0:	03 23 80 29 	sethi  %hi(0x8e00a400), %g1
    1bf4:	90 10 62 c8 	or  %g1, 0x2c8, %o0	! 8e00a6c8 <LEON_REG+0xe00a6c8>
    1bf8:	40 00 00 27 	call  1c94 <_section0+0xa54>
    1bfc:	01 00 00 00 	nop 
    1c00:	b0 10 00 01 	mov  %g1, %i0
    1c04:	81 c7 e0 08 	ret 
    1c08:	81 e8 00 00 	restore 
    1c0c:	03 23 80 29 	sethi  %hi(0x8e00a400), %g1
    1c10:	c2 00 62 d0 	ld  [ %g1 + 0x2d0 ], %g1	! 8e00a6d0 <LEON_REG+0xe00a6d0>
    1c14:	d8 00 61 48 	ld  [ %g1 + 0x148 ], %o4
    1c18:	94 10 00 08 	mov  %o0, %o2
    1c1c:	80 a3 20 00 	cmp  %o4, 0
    1c20:	02 80 00 0c 	be  1c50 <_section0+0xa10>
    1c24:	90 10 3f ff 	mov  -1, %o0
    1c28:	c2 03 20 04 	ld  [ %o4 + 4 ], %g1
    1c2c:	9b 28 60 02 	sll  %g1, 2, %o5
    1c30:	9a 03 40 0c 	add  %o5, %o4, %o5
    1c34:	80 a0 60 1f 	cmp  %g1, 0x1f
    1c38:	14 80 00 09 	bg  1c5c <_section0+0xa1c>
    1c3c:	96 00 60 01 	add  %g1, 1, %o3
    1c40:	d4 23 60 08 	st  %o2, [ %o5 + 8 ]
    1c44:	d6 23 20 04 	st  %o3, [ %o4 + 4 ]
    1c48:	10 80 00 05 	b  1c5c <_section0+0xa1c>
    1c4c:	90 10 20 00 	clr  %o0
    1c50:	98 00 61 4c 	add  %g1, 0x14c, %o4
    1c54:	10 bf ff f5 	b  1c28 <_section0+0x9e8>
    1c58:	d8 20 61 48 	st  %o4, [ %g1 + 0x148 ]
    1c5c:	81 c3 e0 08 	retl 
    1c60:	01 00 00 00 	nop 
    1c64:	9d e3 bf 98 	save  %sp, -104, %sp
    1c68:	f4 27 a0 4c 	st  %i2, [ %fp + 0x4c ]
    1c6c:	f6 27 a0 50 	st  %i3, [ %fp + 0x50 ]
    1c70:	f8 27 a0 54 	st  %i4, [ %fp + 0x54 ]
    1c74:	fa 27 a0 58 	st  %i5, [ %fp + 0x58 ]
    1c78:	90 10 00 18 	mov  %i0, %o0
    1c7c:	d2 06 20 08 	ld  [ %i0 + 8 ], %o1
    1c80:	94 10 00 19 	mov  %i1, %o2
    1c84:	40 00 00 7b 	call  1e70 <_section0+0xc30>
    1c88:	96 07 a0 4c 	add  %fp, 0x4c, %o3
    1c8c:	81 c7 e0 08 	ret 
    1c90:	91 e8 00 08 	restore  %g0, %o0, %o0
    1c94:	9d e3 bf 98 	save  %sp, -104, %sp
    1c98:	03 23 c0 01 	sethi  %hi(0x8f000400), %g1
    1c9c:	f2 27 a0 48 	st  %i1, [ %fp + 0x48 ]
    1ca0:	f4 27 a0 4c 	st  %i2, [ %fp + 0x4c ]
    1ca4:	f6 27 a0 50 	st  %i3, [ %fp + 0x50 ]
    1ca8:	f8 27 a0 54 	st  %i4, [ %fp + 0x54 ]
    1cac:	fa 27 a0 58 	st  %i5, [ %fp + 0x58 ]
    1cb0:	da 00 61 60 	ld  [ %g1 + 0x160 ], %o5
    1cb4:	92 10 00 18 	mov  %i0, %o1
    1cb8:	d0 03 60 08 	ld  [ %o5 + 8 ], %o0
    1cbc:	40 00 07 47 	call  39d8 <_section0+0x2798>
    1cc0:	94 07 a0 48 	add  %fp, 0x48, %o2
    1cc4:	81 c7 e0 08 	ret 
    1cc8:	91 e8 00 08 	restore  %g0, %o0, %o0
    1ccc:	8e 00 14 70 	unknown
    1cd0:	8e 00 14 40 	unknown
    1cd4:	8e 00 14 40 	unknown
    1cd8:	8e 00 14 68 	unknown
    1cdc:	8e 00 14 40 	unknown
    1ce0:	8e 00 14 40 	unknown
    1ce4:	8e 00 14 40 	unknown
    1ce8:	8e 00 14 40 	unknown
    1cec:	8e 00 14 40 	unknown
    1cf0:	8e 00 14 40 	unknown
    1cf4:	8e 00 14 10 	unknown
    1cf8:	8e 00 14 5c 	unknown
    1cfc:	8e 00 14 40 	unknown
    1d00:	8e 00 14 2c 	unknown
    1d04:	8e 00 15 28 	unknown
    1d08:	8e 00 14 40 	unknown
    1d0c:	8e 00 14 c0 	unknown
    1d10:	8e 00 14 8c 	unknown
    1d14:	8e 00 14 8c 	unknown
    1d18:	8e 00 14 8c 	unknown
    1d1c:	8e 00 14 8c 	unknown
    1d20:	8e 00 14 8c 	unknown
    1d24:	8e 00 14 8c 	unknown
    1d28:	8e 00 14 8c 	unknown
    1d2c:	8e 00 14 8c 	unknown
    1d30:	8e 00 14 8c 	unknown
    1d34:	8e 00 14 40 	unknown
    1d38:	8e 00 14 40 	unknown
    1d3c:	8e 00 14 40 	unknown
    1d40:	8e 00 14 40 	unknown
    1d44:	8e 00 14 40 	unknown
    1d48:	8e 00 14 40 	unknown
    1d4c:	8e 00 14 40 	unknown
    1d50:	8e 00 14 40 	unknown
    1d54:	8e 00 14 40 	unknown
    1d58:	8e 00 16 dc 	unknown
    1d5c:	8e 00 0f 78 	unknown
    1d60:	8e 00 17 58 	unknown
    1d64:	8e 00 14 40 	unknown
    1d68:	8e 00 17 58 	unknown
    1d6c:	8e 00 14 40 	unknown
    1d70:	8e 00 14 40 	unknown
    1d74:	8e 00 14 40 	unknown
    1d78:	8e 00 14 40 	unknown
    1d7c:	8e 00 16 d4 	unknown
    1d80:	8e 00 14 40 	unknown
    1d84:	8e 00 14 40 	unknown
    1d88:	8e 00 0f 44 	unknown
    1d8c:	8e 00 14 40 	unknown
    1d90:	8e 00 14 40 	unknown
    1d94:	8e 00 14 40 	unknown
    1d98:	8e 00 15 8c 	unknown
    1d9c:	8e 00 14 40 	unknown
    1da0:	8e 00 0f 10 	unknown
    1da4:	8e 00 14 40 	unknown
    1da8:	8e 00 14 40 	unknown
    1dac:	8e 00 17 34 	unknown
    1db0:	8e 00 14 40 	unknown
    1db4:	8e 00 14 40 	unknown
    1db8:	8e 00 14 40 	unknown
    1dbc:	8e 00 14 40 	unknown
    1dc0:	8e 00 14 40 	unknown
    1dc4:	8e 00 14 40 	unknown
    1dc8:	8e 00 14 40 	unknown
    1dcc:	8e 00 14 40 	unknown
    1dd0:	8e 00 14 40 	unknown
    1dd4:	8e 00 14 40 	unknown
    1dd8:	8e 00 16 dc 	unknown
    1ddc:	8e 00 0f 7c 	unknown
    1de0:	8e 00 17 58 	unknown
    1de4:	8e 00 17 58 	unknown
    1de8:	8e 00 17 58 	unknown
    1dec:	8e 00 15 84 	unknown
    1df0:	8e 00 0f 7c 	unknown
    1df4:	8e 00 14 40 	unknown
    1df8:	8e 00 14 40 	unknown
    1dfc:	8e 00 15 10 	unknown
    1e00:	8e 00 14 40 	unknown
    1e04:	8e 00 16 88 	unknown
    1e08:	8e 00 0f 48 	unknown
    1e0c:	8e 00 16 a8 	unknown
    1e10:	8e 00 14 38 	unknown
    1e14:	8e 00 14 40 	unknown
    1e18:	8e 00 15 8c 	unknown
    1e1c:	8e 00 14 40 	unknown
    1e20:	8e 00 0f 14 	unknown
    1e24:	8e 00 14 40 	unknown
    1e28:	8e 00 14 40 	unknown
    1e2c:	8e 00 14 c8 	unknown
    1e30:	9d e3 bf 98 	save  %sp, -104, %sp
    1e34:	c2 06 60 08 	ld  [ %i1 + 8 ], %g1
    1e38:	90 10 00 18 	mov  %i0, %o0
    1e3c:	92 10 00 19 	mov  %i1, %o1
    1e40:	80 a0 60 00 	cmp  %g1, 0
    1e44:	12 80 00 04 	bne  1e54 <_section0+0xc14>
    1e48:	b0 10 20 00 	clr  %i0
    1e4c:	10 80 00 07 	b  1e68 <_section0+0xc28>
    1e50:	c0 26 60 04 	clr  [ %i1 + 4 ]
    1e54:	40 00 10 0f 	call  5e90 <_section0+0x4c50>
    1e58:	01 00 00 00 	nop 
    1e5c:	c0 26 60 04 	clr  [ %i1 + 4 ]
    1e60:	c0 26 60 08 	clr  [ %i1 + 8 ]
    1e64:	b0 10 00 08 	mov  %o0, %i0
    1e68:	81 c7 e0 08 	ret 
    1e6c:	81 e8 00 00 	restore 
    1e70:	9d e3 b8 58 	save  %sp, -1960, %sp
    1e74:	40 00 11 af 	call  6530 <_section0+0x52f0>
    1e78:	01 00 00 00 	nop 
    1e7c:	c2 16 60 0c 	lduh  [ %i1 + 0xc ], %g1
    1e80:	d0 02 00 00 	ld  [ %o0 ], %o0
    1e84:	80 88 62 00 	btst  0x200, %g1
    1e88:	f0 27 a0 44 	st  %i0, [ %fp + 0x44 ]
    1e8c:	d0 27 b8 e8 	st  %o0, [ %fp + -1816 ]
    1e90:	c0 27 b8 e0 	clr  [ %fp + -1824 ]
    1e94:	c0 27 b8 e4 	clr  [ %fp + -1820 ]
    1e98:	c0 27 b8 dc 	clr  [ %fp + -1828 ]
    1e9c:	c0 27 b8 d8 	clr  [ %fp + -1832 ]
    1ea0:	02 80 00 a8 	be  2140 <_section0+0xf00>
    1ea4:	c0 27 b8 d4 	clr  [ %fp + -1836 ]
    1ea8:	03 23 c0 01 	sethi  %hi(0x8f000400), %g1
    1eac:	d0 00 61 60 	ld  [ %g1 + 0x160 ], %o0	! 8f000560 <LEON_REG+0xf000560>
    1eb0:	80 a2 20 00 	cmp  %o0, 0
    1eb4:	22 80 00 07 	be,a   1ed0 <_section0+0xc90>
    1eb8:	c2 16 60 0c 	lduh  [ %i1 + 0xc ], %g1
    1ebc:	c2 02 20 38 	ld  [ %o0 + 0x38 ], %g1
    1ec0:	80 a0 60 00 	cmp  %g1, 0
    1ec4:	02 80 02 de 	be  2a3c <_section0+0x17fc>
    1ec8:	01 00 00 00 	nop 
    1ecc:	c2 16 60 0c 	lduh  [ %i1 + 0xc ], %g1
    1ed0:	80 88 60 08 	btst  8, %g1
    1ed4:	02 80 00 4d 	be  2008 <_section0+0xdc8>
    1ed8:	98 10 00 01 	mov  %g1, %o4
    1edc:	c2 06 60 10 	ld  [ %i1 + 0x10 ], %g1
    1ee0:	80 a0 60 00 	cmp  %g1, 0
    1ee4:	02 80 00 49 	be  2008 <_section0+0xdc8>
    1ee8:	83 2b 20 10 	sll  %o4, 0x10, %g1
    1eec:	97 30 60 10 	srl  %g1, 0x10, %o3
    1ef0:	9a 0a e0 1a 	and  %o3, 0x1a, %o5
    1ef4:	80 a3 60 0a 	cmp  %o5, 0xa
    1ef8:	22 80 00 51 	be,a   203c <_section0+0xdfc>
    1efc:	c2 56 60 0e 	ldsh  [ %i1 + 0xe ], %g1
    1f00:	b8 07 bf a0 	add  %fp, -96, %i4
    1f04:	f8 27 bf e0 	st  %i4, [ %fp + -32 ]
    1f08:	c0 27 bf e8 	clr  [ %fp + -24 ]
    1f0c:	c0 27 bf e4 	clr  [ %fp + -28 ]
    1f10:	a4 10 00 1c 	mov  %i4, %l2
    1f14:	c0 27 b8 f0 	clr  [ %fp + -1808 ]
    1f18:	c2 4e 80 00 	ldsb  [ %i2 ], %g1
    1f1c:	80 a0 00 01 	cmp  %g0, %g1
    1f20:	98 40 20 00 	addx  %g0, 0, %o4
    1f24:	82 18 60 25 	xor  %g1, 0x25, %g1
    1f28:	80 a0 00 01 	cmp  %g0, %g1
    1f2c:	9a 40 20 00 	addx  %g0, 0, %o5
    1f30:	a6 10 00 1a 	mov  %i2, %l3
    1f34:	80 8b 00 0d 	btst  %o4, %o5
    1f38:	02 80 00 0c 	be  1f68 <_section0+0xd28>
    1f3c:	c2 0e 80 00 	ldub  [ %i2 ], %g1
    1f40:	b4 06 a0 01 	inc  %i2
    1f44:	c2 4e 80 00 	ldsb  [ %i2 ], %g1
    1f48:	80 a0 00 01 	cmp  %g0, %g1
    1f4c:	98 40 20 00 	addx  %g0, 0, %o4
    1f50:	82 18 60 25 	xor  %g1, 0x25, %g1
    1f54:	80 a0 00 01 	cmp  %g0, %g1
    1f58:	9a 40 20 00 	addx  %g0, 0, %o5
    1f5c:	80 8b 00 0d 	btst  %o4, %o5
    1f60:	12 bf ff f8 	bne  1f40 <_section0+0xd00>
    1f64:	c2 0e 80 00 	ldub  [ %i2 ], %g1
    1f68:	a2 a6 80 13 	subcc  %i2, %l3, %l1
    1f6c:	02 80 00 12 	be  1fb4 <_section0+0xd74>
    1f70:	83 28 60 18 	sll  %g1, 0x18, %g1
    1f74:	e2 24 a0 04 	st  %l1, [ %l2 + 4 ]
    1f78:	da 07 bf e4 	ld  [ %fp + -28 ], %o5
    1f7c:	c2 07 bf e8 	ld  [ %fp + -24 ], %g1
    1f80:	9a 03 60 01 	inc  %o5
    1f84:	e6 24 80 00 	st  %l3, [ %l2 ]
    1f88:	82 00 40 11 	add  %g1, %l1, %g1
    1f8c:	c2 27 bf e8 	st  %g1, [ %fp + -24 ]
    1f90:	80 a3 60 07 	cmp  %o5, 7
    1f94:	a4 04 a0 08 	add  %l2, 8, %l2
    1f98:	14 80 00 62 	bg  2120 <_section0+0xee0>
    1f9c:	da 27 bf e4 	st  %o5, [ %fp + -28 ]
    1fa0:	c2 07 b8 f0 	ld  [ %fp + -1808 ], %g1
    1fa4:	82 00 40 11 	add  %g1, %l1, %g1
    1fa8:	c2 27 b8 f0 	st  %g1, [ %fp + -1808 ]
    1fac:	c2 0e 80 00 	ldub  [ %i2 ], %g1
    1fb0:	83 28 60 18 	sll  %g1, 0x18, %g1
    1fb4:	80 a0 60 00 	cmp  %g1, 0
    1fb8:	02 80 06 43 	be  38c4 <_section0+0x2684>
    1fbc:	b4 06 a0 01 	inc  %i2
    1fc0:	c0 2f b8 f7 	clrb  [ %fp + -1801 ]
    1fc4:	ba 10 20 00 	clr  %i5
    1fc8:	b0 10 20 00 	clr  %i0
    1fcc:	c0 27 b8 ec 	clr  [ %fp + -1812 ]
    1fd0:	ac 10 3f ff 	mov  -1, %l6
    1fd4:	c2 0e 80 00 	ldub  [ %i2 ], %g1
    1fd8:	83 28 60 18 	sll  %g1, 0x18, %g1
    1fdc:	ab 38 60 18 	sra  %g1, 0x18, %l5
    1fe0:	b4 06 a0 01 	inc  %i2
    1fe4:	82 05 7f e0 	add  %l5, -32, %g1
    1fe8:	80 a0 60 58 	cmp  %g1, 0x58
    1fec:	18 80 01 a5 	bgu  2680 <_section0+0x1440>
    1ff0:	1b 23 80 02 	sethi  %hi(0x8e000800), %o5
    1ff4:	83 28 60 02 	sll  %g1, 2, %g1
    1ff8:	9a 13 62 8c 	or  %o5, 0x28c, %o5
    1ffc:	d8 03 40 01 	ld  [ %o5 + %g1 ], %o4
    2000:	81 c3 00 00 	jmp  %o4
    2004:	01 00 00 00 	nop 
    2008:	40 00 08 0d 	call  403c <_section0+0x2dfc>
    200c:	90 10 00 19 	mov  %i1, %o0
    2010:	80 a2 20 00 	cmp  %o0, 0
    2014:	32 80 05 f5 	bne,a   37e8 <_section0+0x25a8>
    2018:	c2 16 60 0c 	lduh  [ %i1 + 0xc ], %g1
    201c:	d8 16 60 0c 	lduh  [ %i1 + 0xc ], %o4
    2020:	83 2b 20 10 	sll  %o4, 0x10, %g1
    2024:	97 30 60 10 	srl  %g1, 0x10, %o3
    2028:	9a 0a e0 1a 	and  %o3, 0x1a, %o5
    202c:	80 a3 60 0a 	cmp  %o5, 0xa
    2030:	12 bf ff b5 	bne  1f04 <_section0+0xcc4>
    2034:	b8 07 bf a0 	add  %fp, -96, %i4
    2038:	c2 56 60 0e 	ldsh  [ %i1 + 0xe ], %g1
    203c:	80 a0 60 00 	cmp  %g1, 0
    2040:	06 bf ff b0 	bl  1f00 <_section0+0xcc0>
    2044:	d2 16 60 0e 	lduh  [ %i1 + 0xe ], %o1
    2048:	80 8a e2 00 	btst  0x200, %o3
    204c:	02 80 02 80 	be  2a4c <_section0+0x180c>
    2050:	01 00 00 00 	nop 
    2054:	82 07 b9 68 	add  %fp, -1688, %g1
    2058:	9a 10 24 00 	mov  0x400, %o5
    205c:	98 0b 3f fd 	and  %o4, -3, %o4
    2060:	d6 06 60 1c 	ld  [ %i1 + 0x1c ], %o3
    2064:	d4 06 60 24 	ld  [ %i1 + 0x24 ], %o2
    2068:	a0 07 b9 58 	add  %fp, -1704, %l0
    206c:	d8 37 bd 74 	sth  %o4, [ %fp + -652 ]
    2070:	d6 27 bd 84 	st  %o3, [ %fp + -636 ]
    2074:	d4 27 bd 8c 	st  %o2, [ %fp + -628 ]
    2078:	c2 27 bd 78 	st  %g1, [ %fp + -648 ]
    207c:	da 27 bd 7c 	st  %o5, [ %fp + -644 ]
    2080:	c2 27 bd 68 	st  %g1, [ %fp + -664 ]
    2084:	da 27 bd 70 	st  %o5, [ %fp + -656 ]
    2088:	d2 37 bd 76 	sth  %o1, [ %fp + -650 ]
    208c:	90 10 00 10 	mov  %l0, %o0
    2090:	40 00 22 82 	call  aa98 <_section0+0x9858>
    2094:	c0 27 bd 80 	clr  [ %fp + -640 ]
    2098:	90 10 00 10 	mov  %l0, %o0
    209c:	40 00 22 97 	call  aaf8 <_section0+0x98b8>
    20a0:	92 10 20 01 	mov  1, %o1
    20a4:	a2 07 bd c0 	add  %fp, -576, %l1
    20a8:	92 10 00 10 	mov  %l0, %o1
    20ac:	40 00 22 3e 	call  a9a4 <_section0+0x9764>
    20b0:	90 10 00 11 	mov  %l1, %o0
    20b4:	40 00 22 85 	call  aac8 <_section0+0x9888>
    20b8:	90 10 00 10 	mov  %l0, %o0
    20bc:	a0 07 bd 68 	add  %fp, -664, %l0
    20c0:	d0 07 a0 44 	ld  [ %fp + 0x44 ], %o0
    20c4:	92 10 00 10 	mov  %l0, %o1
    20c8:	94 10 00 1a 	mov  %i2, %o2
    20cc:	7f ff ff 69 	call  1e70 <_section0+0xc30>
    20d0:	96 10 00 1b 	mov  %i3, %o3
    20d4:	b0 92 20 00 	orcc  %o0, 0, %i0
    20d8:	06 80 00 08 	bl  20f8 <_section0+0xeb8>
    20dc:	c2 17 bd 74 	lduh  [ %fp + -652 ], %g1
    20e0:	40 00 0d 5b 	call  564c <_section0+0x440c>
    20e4:	90 10 00 10 	mov  %l0, %o0
    20e8:	80 a2 20 00 	cmp  %o0, 0
    20ec:	32 80 00 02 	bne,a   20f4 <_section0+0xeb4>
    20f0:	b0 10 3f ff 	mov  -1, %i0
    20f4:	c2 17 bd 74 	lduh  [ %fp + -652 ], %g1
    20f8:	80 88 60 40 	btst  0x40, %g1
    20fc:	02 80 00 05 	be  2110 <_section0+0xed0>
    2100:	01 00 00 00 	nop 
    2104:	c2 16 60 0c 	lduh  [ %i1 + 0xc ], %g1
    2108:	82 10 60 40 	or  %g1, 0x40, %g1
    210c:	c2 36 60 0c 	sth  %g1, [ %i1 + 0xc ]
    2110:	40 00 22 32 	call  a9d8 <_section0+0x9798>
    2114:	90 10 00 11 	mov  %l1, %o0
    2118:	10 80 06 2e 	b  39d0 <_section0+0x2790>
    211c:	90 10 00 18 	mov  %i0, %o0
    2120:	90 10 00 19 	mov  %i1, %o0
    2124:	7f ff ff 43 	call  1e30 <_section0+0xbf0>
    2128:	92 07 bf e0 	add  %fp, -32, %o1
    212c:	80 a2 20 00 	cmp  %o0, 0
    2130:	12 80 03 1d 	bne  2da4 <_section0+0x1b64>
    2134:	a4 10 00 1c 	mov  %i4, %l2
    2138:	10 bf ff 9b 	b  1fa4 <_section0+0xd64>
    213c:	c2 07 b8 f0 	ld  [ %fp + -1808 ], %g1
    2140:	40 00 22 32 	call  aa08 <_section0+0x97c8>
    2144:	90 06 60 58 	add  %i1, 0x58, %o0
    2148:	10 bf ff 59 	b  1eac <_section0+0xc6c>
    214c:	03 23 c0 01 	sethi  %hi(0x8f000400), %g1
    2150:	ba 17 60 10 	or  %i5, 0x10, %i5
    2154:	80 8f 60 10 	btst  0x10, %i5
    2158:	12 80 03 5e 	bne  2ed0 <_section0+0x1c90>
    215c:	82 10 00 1b 	mov  %i3, %g1
    2160:	80 8f 60 40 	btst  0x40, %i5
    2164:	22 80 03 5c 	be,a   2ed4 <_section0+0x1c94>
    2168:	b6 06 e0 04 	add  %i3, 4, %i3
    216c:	82 10 00 1b 	mov  %i3, %g1
    2170:	b6 06 e0 04 	add  %i3, 4, %i3
    2174:	e0 10 60 02 	lduh  [ %g1 + 2 ], %l0
    2178:	98 10 20 01 	mov  1, %o4
    217c:	10 80 00 1d 	b  21f0 <_section0+0xfb0>
    2180:	c0 2f b8 f7 	clrb  [ %fp + -1801 ]
    2184:	ba 17 60 10 	or  %i5, 0x10, %i5
    2188:	80 8f 60 10 	btst  0x10, %i5
    218c:	12 80 03 4a 	bne  2eb4 <_section0+0x1c74>
    2190:	82 10 00 1b 	mov  %i3, %g1
    2194:	80 8f 60 40 	btst  0x40, %i5
    2198:	22 80 03 48 	be,a   2eb8 <_section0+0x1c78>
    219c:	b6 06 e0 04 	add  %i3, 4, %i3
    21a0:	82 10 00 1b 	mov  %i3, %g1
    21a4:	b6 06 e0 04 	add  %i3, 4, %i3
    21a8:	e0 10 60 02 	lduh  [ %g1 + 2 ], %l0
    21ac:	98 10 20 00 	clr  %o4
    21b0:	10 80 00 10 	b  21f0 <_section0+0xfb0>
    21b4:	c0 2f b8 f7 	clrb  [ %fp + -1801 ]
    21b8:	ba 17 60 10 	or  %i5, 0x10, %i5
    21bc:	80 8f 60 10 	btst  0x10, %i5
    21c0:	12 80 03 41 	bne  2ec4 <_section0+0x1c84>
    21c4:	82 10 00 1b 	mov  %i3, %g1
    21c8:	80 8f 60 40 	btst  0x40, %i5
    21cc:	22 80 03 3f 	be,a   2ec8 <_section0+0x1c88>
    21d0:	b6 06 e0 04 	add  %i3, 4, %i3
    21d4:	82 10 00 1b 	mov  %i3, %g1
    21d8:	b6 06 e0 04 	add  %i3, 4, %i3
    21dc:	e0 50 60 02 	ldsh  [ %g1 + 2 ], %l0
    21e0:	80 a4 20 00 	cmp  %l0, 0
    21e4:	06 80 02 13 	bl  2a30 <_section0+0x17f0>
    21e8:	82 10 20 2d 	mov  0x2d, %g1
    21ec:	98 10 20 01 	mov  1, %o4
    21f0:	b0 95 a0 00 	orcc  %l6, 0, %i0
    21f4:	36 80 00 02 	bge,a   21fc <_section0+0xfbc>
    21f8:	ba 0f 7f 7f 	and  %i5, -129, %i5
    21fc:	80 a0 00 10 	cmp  %g0, %l0
    2200:	9a 40 20 00 	addx  %g0, 0, %o5
    2204:	80 a0 00 18 	cmp  %g0, %i0
    2208:	82 40 20 00 	addx  %g0, 0, %g1
    220c:	80 93 40 01 	orcc  %o5, %g1, %g0
    2210:	02 80 02 d3 	be  2d5c <_section0+0x1b1c>
    2214:	a6 07 bf 9c 	add  %fp, -100, %l3
    2218:	82 0b 20 ff 	and  %o4, 0xff, %g1
    221c:	80 a0 60 01 	cmp  %g1, 1
    2220:	22 80 00 f2 	be,a   25e8 <_section0+0x13a8>
    2224:	80 a4 20 09 	cmp  %l0, 9
    2228:	04 80 03 99 	ble  308c <_section0+0x1e4c>
    222c:	80 a0 60 02 	cmp  %g1, 2
    2230:	02 80 00 f7 	be  260c <_section0+0x13cc>
    2234:	82 0c 20 0f 	and  %l0, 0xf, %g1
    2238:	03 23 80 29 	sethi  %hi(0x8e00a400), %g1
    223c:	a6 10 63 00 	or  %g1, 0x300, %l3	! 8e00a700 <LEON_REG+0xe00a700>
    2240:	40 00 18 fa 	call  8628 <_section0+0x73e8>
    2244:	90 10 00 13 	mov  %l3, %o0
    2248:	a8 10 00 08 	mov  %o0, %l4
    224c:	80 a5 00 18 	cmp  %l4, %i0
    2250:	16 80 00 03 	bge  225c <_section0+0x101c>
    2254:	ac 10 00 14 	mov  %l4, %l6
    2258:	ac 10 00 18 	mov  %i0, %l6
    225c:	c2 4f b8 f7 	ldsb  [ %fp + -1801 ], %g1
    2260:	80 a0 60 00 	cmp  %g1, 0
    2264:	02 80 01 ff 	be  2a60 <_section0+0x1820>
    2268:	c2 0f b8 f7 	ldub  [ %fp + -1801 ], %g1
    226c:	ac 05 a0 01 	inc  %l6
    2270:	ae 8f 60 84 	andcc  %i5, 0x84, %l7
    2274:	32 80 00 33 	bne,a   2340 <_section0+0x1100>
    2278:	83 28 60 18 	sll  %g1, 0x18, %g1
    227c:	d2 07 b8 ec 	ld  [ %fp + -1812 ], %o1
    2280:	a0 22 40 16 	sub  %o1, %l6, %l0
    2284:	80 a4 20 00 	cmp  %l0, 0
    2288:	04 80 00 2d 	ble  233c <_section0+0x10fc>
    228c:	80 a4 20 10 	cmp  %l0, 0x10
    2290:	04 80 00 1d 	ble  2304 <_section0+0x10c4>
    2294:	17 23 80 29 	sethi  %hi(0x8e00a400), %o3
    2298:	10 80 00 06 	b  22b0 <_section0+0x1070>
    229c:	a2 12 e2 e0 	or  %o3, 0x2e0, %l1	! 8e00a6e0 <LEON_REG+0xe00a6e0>
    22a0:	a0 04 3f f0 	add  %l0, -16, %l0
    22a4:	80 a4 20 10 	cmp  %l0, 0x10
    22a8:	04 80 00 18 	ble  2308 <_section0+0x10c8>
    22ac:	19 23 80 29 	sethi  %hi(0x8e00a400), %o4
    22b0:	82 10 20 10 	mov  0x10, %g1
    22b4:	c2 24 a0 04 	st  %g1, [ %l2 + 4 ]
    22b8:	da 07 bf e4 	ld  [ %fp + -28 ], %o5
    22bc:	c2 07 bf e8 	ld  [ %fp + -24 ], %g1
    22c0:	9a 03 60 01 	inc  %o5
    22c4:	e2 24 80 00 	st  %l1, [ %l2 ]
    22c8:	82 00 60 10 	add  %g1, 0x10, %g1
    22cc:	c2 27 bf e8 	st  %g1, [ %fp + -24 ]
    22d0:	80 a3 60 07 	cmp  %o5, 7
    22d4:	a4 04 a0 08 	add  %l2, 8, %l2
    22d8:	04 bf ff f2 	ble  22a0 <_section0+0x1060>
    22dc:	da 27 bf e4 	st  %o5, [ %fp + -28 ]
    22e0:	90 10 00 19 	mov  %i1, %o0
    22e4:	7f ff fe d3 	call  1e30 <_section0+0xbf0>
    22e8:	92 07 bf e0 	add  %fp, -32, %o1
    22ec:	80 a2 20 00 	cmp  %o0, 0
    22f0:	12 80 02 ad 	bne  2da4 <_section0+0x1b64>
    22f4:	a0 04 3f f0 	add  %l0, -16, %l0
    22f8:	80 a4 20 10 	cmp  %l0, 0x10
    22fc:	14 bf ff ed 	bg  22b0 <_section0+0x1070>
    2300:	a4 10 00 1c 	mov  %i4, %l2
    2304:	19 23 80 29 	sethi  %hi(0x8e00a400), %o4
    2308:	82 13 22 e0 	or  %o4, 0x2e0, %g1	! 8e00a6e0 <LEON_REG+0xe00a6e0>
    230c:	e0 24 a0 04 	st  %l0, [ %l2 + 4 ]
    2310:	c2 24 80 00 	st  %g1, [ %l2 ]
    2314:	da 07 bf e8 	ld  [ %fp + -24 ], %o5
    2318:	c2 07 bf e4 	ld  [ %fp + -28 ], %g1
    231c:	82 00 60 01 	inc  %g1
    2320:	9a 03 40 10 	add  %o5, %l0, %o5
    2324:	da 27 bf e8 	st  %o5, [ %fp + -24 ]
    2328:	80 a0 60 07 	cmp  %g1, 7
    232c:	a4 04 a0 08 	add  %l2, 8, %l2
    2330:	14 80 02 83 	bg  2d3c <_section0+0x1afc>
    2334:	c2 27 bf e4 	st  %g1, [ %fp + -28 ]
    2338:	c2 0f b8 f7 	ldub  [ %fp + -1801 ], %g1
    233c:	83 28 60 18 	sll  %g1, 0x18, %g1
    2340:	80 a0 60 00 	cmp  %g1, 0
    2344:	02 80 01 cc 	be  2a74 <_section0+0x1834>
    2348:	80 8f 60 02 	btst  2, %i5
    234c:	82 10 20 01 	mov  1, %g1
    2350:	c2 24 a0 04 	st  %g1, [ %l2 + 4 ]
    2354:	d8 07 bf e4 	ld  [ %fp + -28 ], %o4
    2358:	c2 07 bf e8 	ld  [ %fp + -24 ], %g1
    235c:	9a 07 b8 f7 	add  %fp, -1801, %o5
    2360:	98 03 20 01 	inc  %o4
    2364:	da 24 80 00 	st  %o5, [ %l2 ]
    2368:	82 00 60 01 	inc  %g1
    236c:	c2 27 bf e8 	st  %g1, [ %fp + -24 ]
    2370:	80 a3 20 07 	cmp  %o4, 7
    2374:	a4 04 a0 08 	add  %l2, 8, %l2
    2378:	14 80 01 d1 	bg  2abc <_section0+0x187c>
    237c:	d8 27 bf e4 	st  %o4, [ %fp + -28 ]
    2380:	80 a5 e0 80 	cmp  %l7, 0x80
    2384:	02 80 01 d7 	be  2ae0 <_section0+0x18a0>
    2388:	da 07 b8 ec 	ld  [ %fp + -1812 ], %o5
    238c:	a0 26 00 14 	sub  %i0, %l4, %l0
    2390:	80 a4 20 00 	cmp  %l0, 0
    2394:	04 80 00 31 	ble  2458 <_section0+0x1218>
    2398:	80 a4 20 10 	cmp  %l0, 0x10
    239c:	04 80 00 1d 	ble  2410 <_section0+0x11d0>
    23a0:	2f 23 80 29 	sethi  %hi(0x8e00a400), %l7
    23a4:	10 80 00 06 	b  23bc <_section0+0x117c>
    23a8:	a2 15 e2 f0 	or  %l7, 0x2f0, %l1	! 8e00a6f0 <LEON_REG+0xe00a6f0>
    23ac:	a0 04 3f f0 	add  %l0, -16, %l0
    23b0:	80 a4 20 10 	cmp  %l0, 0x10
    23b4:	04 80 00 18 	ble  2414 <_section0+0x11d4>
    23b8:	82 15 e2 f0 	or  %l7, 0x2f0, %g1
    23bc:	82 10 20 10 	mov  0x10, %g1
    23c0:	c2 24 a0 04 	st  %g1, [ %l2 + 4 ]
    23c4:	da 07 bf e4 	ld  [ %fp + -28 ], %o5
    23c8:	c2 07 bf e8 	ld  [ %fp + -24 ], %g1
    23cc:	9a 03 60 01 	inc  %o5
    23d0:	e2 24 80 00 	st  %l1, [ %l2 ]
    23d4:	82 00 60 10 	add  %g1, 0x10, %g1
    23d8:	c2 27 bf e8 	st  %g1, [ %fp + -24 ]
    23dc:	80 a3 60 07 	cmp  %o5, 7
    23e0:	a4 04 a0 08 	add  %l2, 8, %l2
    23e4:	04 bf ff f2 	ble  23ac <_section0+0x116c>
    23e8:	da 27 bf e4 	st  %o5, [ %fp + -28 ]
    23ec:	90 10 00 19 	mov  %i1, %o0
    23f0:	7f ff fe 90 	call  1e30 <_section0+0xbf0>
    23f4:	92 07 bf e0 	add  %fp, -32, %o1
    23f8:	80 a2 20 00 	cmp  %o0, 0
    23fc:	12 80 02 6a 	bne  2da4 <_section0+0x1b64>
    2400:	a0 04 3f f0 	add  %l0, -16, %l0
    2404:	80 a4 20 10 	cmp  %l0, 0x10
    2408:	14 bf ff ed 	bg  23bc <_section0+0x117c>
    240c:	a4 10 00 1c 	mov  %i4, %l2
    2410:	82 15 e2 f0 	or  %l7, 0x2f0, %g1
    2414:	e0 24 a0 04 	st  %l0, [ %l2 + 4 ]
    2418:	c2 24 80 00 	st  %g1, [ %l2 ]
    241c:	da 07 bf e8 	ld  [ %fp + -24 ], %o5
    2420:	c2 07 bf e4 	ld  [ %fp + -28 ], %g1
    2424:	82 00 60 01 	inc  %g1
    2428:	9a 03 40 10 	add  %o5, %l0, %o5
    242c:	da 27 bf e8 	st  %o5, [ %fp + -24 ]
    2430:	80 a0 60 07 	cmp  %g1, 7
    2434:	a4 04 a0 08 	add  %l2, 8, %l2
    2438:	04 80 00 08 	ble  2458 <_section0+0x1218>
    243c:	c2 27 bf e4 	st  %g1, [ %fp + -28 ]
    2440:	90 10 00 19 	mov  %i1, %o0
    2444:	7f ff fe 7b 	call  1e30 <_section0+0xbf0>
    2448:	92 07 bf e0 	add  %fp, -32, %o1
    244c:	80 a2 20 00 	cmp  %o0, 0
    2450:	12 80 02 55 	bne  2da4 <_section0+0x1b64>
    2454:	a4 10 00 1c 	mov  %i4, %l2
    2458:	80 8f 61 00 	btst  0x100, %i5
    245c:	12 80 01 d6 	bne  2bb4 <_section0+0x1974>
    2460:	80 a5 60 65 	cmp  %l5, 0x65
    2464:	e8 24 a0 04 	st  %l4, [ %l2 + 4 ]
    2468:	c2 07 bf e8 	ld  [ %fp + -24 ], %g1
    246c:	e6 24 80 00 	st  %l3, [ %l2 ]
    2470:	82 00 40 14 	add  %g1, %l4, %g1
    2474:	da 07 bf e4 	ld  [ %fp + -28 ], %o5
    2478:	9a 03 60 01 	inc  %o5
    247c:	c2 27 bf e8 	st  %g1, [ %fp + -24 ]
    2480:	80 a3 60 07 	cmp  %o5, 7
    2484:	a4 04 a0 08 	add  %l2, 8, %l2
    2488:	da 27 bf e4 	st  %o5, [ %fp + -28 ]
    248c:	14 80 02 25 	bg  2d20 <_section0+0x1ae0>
    2490:	90 10 00 19 	mov  %i1, %o0
    2494:	80 8f 60 04 	btst  4, %i5
    2498:	02 80 00 36 	be  2570 <_section0+0x1330>
    249c:	d2 07 b8 ec 	ld  [ %fp + -1812 ], %o1
    24a0:	a0 22 40 16 	sub  %o1, %l6, %l0
    24a4:	80 a4 20 00 	cmp  %l0, 0
    24a8:	04 80 00 32 	ble  2570 <_section0+0x1330>
    24ac:	80 a4 20 10 	cmp  %l0, 0x10
    24b0:	04 80 00 1d 	ble  2524 <_section0+0x12e4>
    24b4:	17 23 80 29 	sethi  %hi(0x8e00a400), %o3
    24b8:	10 80 00 06 	b  24d0 <_section0+0x1290>
    24bc:	a2 12 e2 e0 	or  %o3, 0x2e0, %l1	! 8e00a6e0 <LEON_REG+0xe00a6e0>
    24c0:	a0 04 3f f0 	add  %l0, -16, %l0
    24c4:	80 a4 20 10 	cmp  %l0, 0x10
    24c8:	24 80 00 18 	ble,a   2528 <_section0+0x12e8>
    24cc:	e0 24 a0 04 	st  %l0, [ %l2 + 4 ]
    24d0:	82 10 20 10 	mov  0x10, %g1
    24d4:	c2 24 a0 04 	st  %g1, [ %l2 + 4 ]
    24d8:	da 07 bf e4 	ld  [ %fp + -28 ], %o5
    24dc:	c2 07 bf e8 	ld  [ %fp + -24 ], %g1
    24e0:	9a 03 60 01 	inc  %o5
    24e4:	e2 24 80 00 	st  %l1, [ %l2 ]
    24e8:	82 00 60 10 	add  %g1, 0x10, %g1
    24ec:	c2 27 bf e8 	st  %g1, [ %fp + -24 ]
    24f0:	80 a3 60 07 	cmp  %o5, 7
    24f4:	a4 04 a0 08 	add  %l2, 8, %l2
    24f8:	04 bf ff f2 	ble  24c0 <_section0+0x1280>
    24fc:	da 27 bf e4 	st  %o5, [ %fp + -28 ]
    2500:	90 10 00 19 	mov  %i1, %o0
    2504:	7f ff fe 4b 	call  1e30 <_section0+0xbf0>
    2508:	92 07 bf e0 	add  %fp, -32, %o1
    250c:	80 a2 20 00 	cmp  %o0, 0
    2510:	12 80 02 25 	bne  2da4 <_section0+0x1b64>
    2514:	a0 04 3f f0 	add  %l0, -16, %l0
    2518:	80 a4 20 10 	cmp  %l0, 0x10
    251c:	14 bf ff ed 	bg  24d0 <_section0+0x1290>
    2520:	a4 10 00 1c 	mov  %i4, %l2
    2524:	e0 24 a0 04 	st  %l0, [ %l2 + 4 ]
    2528:	d8 07 bf e8 	ld  [ %fp + -24 ], %o4
    252c:	da 07 bf e4 	ld  [ %fp + -28 ], %o5
    2530:	11 23 80 29 	sethi  %hi(0x8e00a400), %o0
    2534:	9a 03 60 01 	inc  %o5
    2538:	98 03 00 10 	add  %o4, %l0, %o4
    253c:	82 12 22 e0 	or  %o0, 0x2e0, %g1
    2540:	c2 24 80 00 	st  %g1, [ %l2 ]
    2544:	d8 27 bf e8 	st  %o4, [ %fp + -24 ]
    2548:	80 a3 60 07 	cmp  %o5, 7
    254c:	04 80 00 08 	ble  256c <_section0+0x132c>
    2550:	da 27 bf e4 	st  %o5, [ %fp + -28 ]
    2554:	90 10 00 19 	mov  %i1, %o0
    2558:	7f ff fe 36 	call  1e30 <_section0+0xbf0>
    255c:	92 07 bf e0 	add  %fp, -32, %o1
    2560:	80 a2 20 00 	cmp  %o0, 0
    2564:	12 80 02 11 	bne  2da8 <_section0+0x1b68>
    2568:	da 07 b8 d4 	ld  [ %fp + -1836 ], %o5
    256c:	d2 07 b8 ec 	ld  [ %fp + -1812 ], %o1
    2570:	80 a5 80 09 	cmp  %l6, %o1
    2574:	16 80 00 03 	bge  2580 <_section0+0x1340>
    2578:	82 10 00 16 	mov  %l6, %g1
    257c:	82 10 00 09 	mov  %o1, %g1
    2580:	d6 07 b8 f0 	ld  [ %fp + -1808 ], %o3
    2584:	96 02 c0 01 	add  %o3, %g1, %o3
    2588:	c2 07 bf e8 	ld  [ %fp + -24 ], %g1
    258c:	80 a0 60 00 	cmp  %g1, 0
    2590:	12 80 01 ff 	bne  2d8c <_section0+0x1b4c>
    2594:	d6 27 b8 f0 	st  %o3, [ %fp + -1808 ]
    2598:	d8 07 b8 d4 	ld  [ %fp + -1836 ], %o4
    259c:	c0 27 bf e4 	clr  [ %fp + -28 ]
    25a0:	80 a3 20 00 	cmp  %o4, 0
    25a4:	02 bf fe 5d 	be  1f18 <_section0+0xcd8>
    25a8:	a4 10 00 1c 	mov  %i4, %l2
    25ac:	92 10 00 0c 	mov  %o4, %o1
    25b0:	40 00 0d 97 	call  5c0c <_section0+0x49cc>
    25b4:	d0 07 a0 44 	ld  [ %fp + 0x44 ], %o0
    25b8:	10 bf fe 58 	b  1f18 <_section0+0xcd8>
    25bc:	c0 27 b8 d4 	clr  [ %fp + -1836 ]
    25c0:	40 00 1a 73 	call  8f8c <_section0+0x7d4c>
    25c4:	92 10 20 0a 	mov  0xa, %o1
    25c8:	90 02 20 30 	add  %o0, 0x30, %o0
    25cc:	a6 04 ff ff 	add  %l3, -1, %l3
    25d0:	d0 2c c0 00 	stb  %o0, [ %l3 ]
    25d4:	90 10 00 10 	mov  %l0, %o0
    25d8:	40 00 19 c1 	call  8cdc <_section0+0x7a9c>
    25dc:	92 10 20 0a 	mov  0xa, %o1
    25e0:	a0 10 00 08 	mov  %o0, %l0
    25e4:	80 a4 20 09 	cmp  %l0, 9
    25e8:	18 bf ff f6 	bgu  25c0 <_section0+0x1380>
    25ec:	90 10 00 10 	mov  %l0, %o0
    25f0:	a6 04 ff ff 	add  %l3, -1, %l3
    25f4:	82 04 20 30 	add  %l0, 0x30, %g1
    25f8:	c2 2c c0 00 	stb  %g1, [ %l3 ]
    25fc:	82 27 80 13 	sub  %fp, %l3, %g1
    2600:	10 bf ff 13 	b  224c <_section0+0x100c>
    2604:	a8 00 7f 9c 	add  %g1, -100, %l4
    2608:	82 0c 20 0f 	and  %l0, 0xf, %g1
    260c:	d0 07 b8 d8 	ld  [ %fp + -1832 ], %o0
    2610:	a6 04 ff ff 	add  %l3, -1, %l3
    2614:	da 08 40 08 	ldub  [ %g1 + %o0 ], %o5
    2618:	a1 34 20 04 	srl  %l0, 4, %l0
    261c:	80 a4 20 00 	cmp  %l0, 0
    2620:	02 bf ff f7 	be  25fc <_section0+0x13bc>
    2624:	da 2c c0 00 	stb  %o5, [ %l3 ]
    2628:	82 0c 20 0f 	and  %l0, 0xf, %g1
    262c:	d0 07 b8 d8 	ld  [ %fp + -1832 ], %o0
    2630:	a6 04 ff ff 	add  %l3, -1, %l3
    2634:	da 08 40 08 	ldub  [ %g1 + %o0 ], %o5
    2638:	a1 34 20 04 	srl  %l0, 4, %l0
    263c:	80 a4 20 00 	cmp  %l0, 0
    2640:	12 bf ff f2 	bne  2608 <_section0+0x13c8>
    2644:	da 2c c0 00 	stb  %o5, [ %l3 ]
    2648:	10 bf ff ee 	b  2600 <_section0+0x13c0>
    264c:	82 27 80 13 	sub  %fp, %l3, %g1
    2650:	c2 06 c0 00 	ld  [ %i3 ], %g1
    2654:	c2 27 b8 ec 	st  %g1, [ %fp + -1812 ]
    2658:	80 a0 60 00 	cmp  %g1, 0
    265c:	16 bf fe 5e 	bge  1fd4 <_section0+0xd94>
    2660:	b6 06 e0 04 	add  %i3, 4, %i3
    2664:	82 20 00 01 	neg  %g1
    2668:	c2 27 b8 ec 	st  %g1, [ %fp + -1812 ]
    266c:	10 bf fe 5a 	b  1fd4 <_section0+0xd94>
    2670:	ba 17 60 04 	or  %i5, 4, %i5
    2674:	b4 06 a0 01 	inc  %i2
    2678:	10 bf fe 57 	b  1fd4 <_section0+0xd94>
    267c:	ba 17 60 10 	or  %i5, 0x10, %i5
    2680:	80 a5 60 00 	cmp  %l5, 0
    2684:	02 80 04 90 	be  38c4 <_section0+0x2684>
    2688:	a6 07 be 40 	add  %fp, -448, %l3
    268c:	ea 2f be 40 	stb  %l5, [ %fp + -448 ]
    2690:	c0 2f b8 f7 	clrb  [ %fp + -1801 ]
    2694:	10 bf fe ee 	b  224c <_section0+0x100c>
    2698:	a8 10 20 01 	mov  1, %l4
    269c:	82 10 20 2b 	mov  0x2b, %g1
    26a0:	10 bf fe 4d 	b  1fd4 <_section0+0xd94>
    26a4:	c2 2f b8 f7 	stb  %g1, [ %fp + -1801 ]
    26a8:	10 bf fe 4b 	b  1fd4 <_section0+0xd94>
    26ac:	ba 17 60 01 	or  %i5, 1, %i5
    26b0:	c2 4f b8 f7 	ldsb  [ %fp + -1801 ], %g1
    26b4:	80 a0 60 00 	cmp  %g1, 0
    26b8:	32 bf fe 48 	bne,a   1fd8 <_section0+0xd98>
    26bc:	c2 0e 80 00 	ldub  [ %i2 ], %g1
    26c0:	82 10 20 20 	mov  0x20, %g1
    26c4:	10 bf fe 44 	b  1fd4 <_section0+0xd94>
    26c8:	c2 2f b8 f7 	stb  %g1, [ %fp + -1801 ]
    26cc:	a0 10 20 00 	clr  %l0
    26d0:	83 2c 20 02 	sll  %l0, 2, %g1
    26d4:	82 00 40 10 	add  %g1, %l0, %g1
    26d8:	82 00 40 01 	add  %g1, %g1, %g1
    26dc:	82 00 40 15 	add  %g1, %l5, %g1
    26e0:	ea 4e 80 00 	ldsb  [ %i2 ], %l5
    26e4:	9a 05 7f d0 	add  %l5, -48, %o5
    26e8:	80 a3 60 09 	cmp  %o5, 9
    26ec:	a0 00 7f d0 	add  %g1, -48, %l0
    26f0:	08 bf ff f8 	bleu  26d0 <_section0+0x1490>
    26f4:	b4 06 a0 01 	inc  %i2
    26f8:	10 bf fe 3b 	b  1fe4 <_section0+0xda4>
    26fc:	e0 27 b8 ec 	st  %l0, [ %fp + -1812 ]
    2700:	10 bf fe 35 	b  1fd4 <_section0+0xd94>
    2704:	ba 17 60 80 	or  %i5, 0x80, %i5
    2708:	03 23 80 29 	sethi  %hi(0x8e00a400), %g1
    270c:	82 10 63 20 	or  %g1, 0x320, %g1	! 8e00a720 <LEON_REG+0xe00a720>
    2710:	80 8f 60 10 	btst  0x10, %i5
    2714:	12 80 00 9d 	bne  2988 <_section0+0x1748>
    2718:	c2 27 b8 d8 	st  %g1, [ %fp + -1832 ]
    271c:	80 8f 60 40 	btst  0x40, %i5
    2720:	02 80 00 9b 	be  298c <_section0+0x174c>
    2724:	82 10 00 1b 	mov  %i3, %g1
    2728:	b6 06 e0 04 	add  %i3, 4, %i3
    272c:	e0 10 60 02 	lduh  [ %g1 + 2 ], %l0
    2730:	80 a0 00 10 	cmp  %g0, %l0
    2734:	82 40 20 00 	addx  %g0, 0, %g1
    2738:	80 8f 40 01 	btst  %i5, %g1
    273c:	02 bf fe 90 	be  217c <_section0+0xf3c>
    2740:	98 10 20 02 	mov  2, %o4
    2744:	ba 17 60 02 	or  %i5, 2, %i5
    2748:	10 bf fe aa 	b  21f0 <_section0+0xfb0>
    274c:	c0 2f b8 f7 	clrb  [ %fp + -1801 ]
    2750:	c2 4e 80 00 	ldsb  [ %i2 ], %g1
    2754:	80 a0 60 6c 	cmp  %g1, 0x6c
    2758:	02 bf ff c7 	be  2674 <_section0+0x1434>
    275c:	c2 0e 80 00 	ldub  [ %i2 ], %g1
    2760:	10 bf fe 1e 	b  1fd8 <_section0+0xd98>
    2764:	ba 17 60 10 	or  %i5, 0x10, %i5
    2768:	ea 4e 80 00 	ldsb  [ %i2 ], %l5
    276c:	80 a5 60 2a 	cmp  %l5, 0x2a
    2770:	02 80 04 92 	be  39b8 <_section0+0x2778>
    2774:	b4 06 a0 01 	inc  %i2
    2778:	82 05 7f d0 	add  %l5, -48, %g1
    277c:	80 a0 60 09 	cmp  %g1, 9
    2780:	18 80 00 0c 	bgu  27b0 <_section0+0x1570>
    2784:	a0 10 20 00 	clr  %l0
    2788:	83 2c 20 02 	sll  %l0, 2, %g1
    278c:	82 00 40 10 	add  %g1, %l0, %g1
    2790:	82 00 40 01 	add  %g1, %g1, %g1
    2794:	82 00 40 15 	add  %g1, %l5, %g1
    2798:	ea 4e 80 00 	ldsb  [ %i2 ], %l5
    279c:	9a 05 7f d0 	add  %l5, -48, %o5
    27a0:	80 a3 60 09 	cmp  %o5, 9
    27a4:	a0 00 7f d0 	add  %g1, -48, %l0
    27a8:	08 bf ff f8 	bleu  2788 <_section0+0x1548>
    27ac:	b4 06 a0 01 	inc  %i2
    27b0:	80 a4 3f ff 	cmp  %l0, -1
    27b4:	16 bf fe 0c 	bge  1fe4 <_section0+0xda4>
    27b8:	ac 10 00 10 	mov  %l0, %l6
    27bc:	10 bf fe 0a 	b  1fe4 <_section0+0xda4>
    27c0:	ac 10 3f ff 	mov  -1, %l6
    27c4:	10 bf fe 04 	b  1fd4 <_section0+0xd94>
    27c8:	ba 17 60 40 	or  %i5, 0x40, %i5
    27cc:	e6 06 c0 00 	ld  [ %i3 ], %l3
    27d0:	c0 2f b8 f7 	clrb  [ %fp + -1801 ]
    27d4:	80 a4 e0 00 	cmp  %l3, 0
    27d8:	02 80 03 b2 	be  36a0 <_section0+0x2460>
    27dc:	b6 06 e0 04 	add  %i3, 4, %i3
    27e0:	80 a5 60 53 	cmp  %l5, 0x53
    27e4:	02 80 00 04 	be  27f4 <_section0+0x15b4>
    27e8:	80 8f 60 10 	btst  0x10, %i5
    27ec:	02 80 03 41 	be  34f0 <_section0+0x22b0>
    27f0:	80 a5 a0 00 	cmp  %l6, 0
    27f4:	ae 07 b9 10 	add  %fp, -1776, %l7
    27f8:	e6 27 b8 f8 	st  %l3, [ %fp + -1800 ]
    27fc:	90 10 00 17 	mov  %l7, %o0
    2800:	92 10 20 00 	clr  %o1
    2804:	40 00 12 1a 	call  706c <_section0+0x5e2c>
    2808:	94 10 20 08 	mov  8, %o2
    280c:	80 a5 a0 00 	cmp  %l6, 0
    2810:	a2 10 20 00 	clr  %l1
    2814:	06 80 04 12 	bl  385c <_section0+0x261c>
    2818:	a8 10 20 00 	clr  %l4
    281c:	9b 2c 60 02 	sll  %l1, 2, %o5
    2820:	c2 07 b8 f8 	ld  [ %fp + -1800 ], %g1
    2824:	d4 00 40 0d 	ld  [ %g1 + %o5 ], %o2
    2828:	80 a2 a0 00 	cmp  %o2, 0
    282c:	02 80 00 0e 	be  2864 <_section0+0x1624>
    2830:	d0 07 a0 44 	ld  [ %fp + 0x44 ], %o0
    2834:	92 07 be 40 	add  %fp, -448, %o1
    2838:	40 00 04 73 	call  3a04 <_section0+0x27c4>
    283c:	96 10 00 17 	mov  %l7, %o3
    2840:	80 a2 3f ff 	cmp  %o0, -1
    2844:	02 80 03 fa 	be  382c <_section0+0x25ec>
    2848:	82 02 00 14 	add  %o0, %l4, %g1
    284c:	80 a0 40 16 	cmp  %g1, %l6
    2850:	34 80 00 06 	bg,a   2868 <_section0+0x1628>
    2854:	80 a5 20 00 	cmp  %l4, 0
    2858:	a8 10 00 01 	mov  %g1, %l4
    285c:	12 bf ff f0 	bne  281c <_section0+0x15dc>
    2860:	a2 04 60 01 	inc  %l1
    2864:	80 a5 20 00 	cmp  %l4, 0
    2868:	02 bf fe 7a 	be  2250 <_section0+0x1010>
    286c:	80 a5 00 18 	cmp  %l4, %i0
    2870:	d0 07 a0 44 	ld  [ %fp + 0x44 ], %o0
    2874:	40 00 0f 8d 	call  66a8 <_section0+0x5468>
    2878:	92 05 20 01 	add  %l4, 1, %o1
    287c:	80 a2 20 00 	cmp  %o0, 0
    2880:	02 80 04 4a 	be  39a8 <_section0+0x2768>
    2884:	d0 27 b8 d4 	st  %o0, [ %fp + -1836 ]
    2888:	92 10 20 00 	clr  %o1
    288c:	94 10 20 08 	mov  8, %o2
    2890:	40 00 11 f7 	call  706c <_section0+0x5e2c>
    2894:	90 10 00 17 	mov  %l7, %o0
    2898:	d0 07 a0 44 	ld  [ %fp + 0x44 ], %o0
    289c:	d2 07 b8 d4 	ld  [ %fp + -1836 ], %o1
    28a0:	98 10 00 17 	mov  %l7, %o4
    28a4:	94 07 b8 f8 	add  %fp, -1800, %o2
    28a8:	40 00 04 76 	call  3a80 <_section0+0x2840>
    28ac:	96 10 00 14 	mov  %l4, %o3
    28b0:	80 a2 00 14 	cmp  %o0, %l4
    28b4:	12 80 03 de 	bne  382c <_section0+0x25ec>
    28b8:	d8 07 b8 d4 	ld  [ %fp + -1836 ], %o4
    28bc:	c0 2b 00 14 	clrb  [ %o4 + %l4 ]
    28c0:	10 bf fe 63 	b  224c <_section0+0x100c>
    28c4:	e6 07 b8 d4 	ld  [ %fp + -1836 ], %l3
    28c8:	80 8f 60 10 	btst  0x10, %i5
    28cc:	02 80 02 37 	be  31a8 <_section0+0x1f68>
    28d0:	80 8f 60 40 	btst  0x40, %i5
    28d4:	da 06 c0 00 	ld  [ %i3 ], %o5
    28d8:	d0 07 b8 f0 	ld  [ %fp + -1808 ], %o0
    28dc:	d0 23 40 00 	st  %o0, [ %o5 ]
    28e0:	10 bf fd 8e 	b  1f18 <_section0+0xcd8>
    28e4:	b6 06 e0 04 	add  %i3, 4, %i3
    28e8:	9a 10 00 1b 	mov  %i3, %o5
    28ec:	03 23 80 29 	sethi  %hi(0x8e00a400), %g1
    28f0:	e0 03 40 00 	ld  [ %o5 ], %l0
    28f4:	82 10 63 20 	or  %g1, 0x320, %g1
    28f8:	b6 06 e0 04 	add  %i3, 4, %i3
    28fc:	c2 27 b8 d8 	st  %g1, [ %fp + -1832 ]
    2900:	ba 17 60 02 	or  %i5, 2, %i5
    2904:	98 10 20 02 	mov  2, %o4
    2908:	aa 10 20 78 	mov  0x78, %l5
    290c:	10 bf fe 39 	b  21f0 <_section0+0xfb0>
    2910:	c0 2f b8 f7 	clrb  [ %fp + -1801 ]
    2914:	10 bf fd b0 	b  1fd4 <_section0+0xd94>
    2918:	ba 17 60 08 	or  %i5, 8, %i5
    291c:	80 a5 60 43 	cmp  %l5, 0x43
    2920:	02 80 00 05 	be  2934 <_section0+0x16f4>
    2924:	a6 07 be 40 	add  %fp, -448, %l3
    2928:	80 8f 60 10 	btst  0x10, %i5
    292c:	22 80 02 cb 	be,a   3458 <_section0+0x2218>
    2930:	da 06 c0 00 	ld  [ %i3 ], %o5
    2934:	a0 07 b9 50 	add  %fp, -1712, %l0
    2938:	92 10 20 00 	clr  %o1
    293c:	94 10 20 08 	mov  8, %o2
    2940:	40 00 11 cb 	call  706c <_section0+0x5e2c>
    2944:	90 10 00 10 	mov  %l0, %o0
    2948:	d4 06 c0 00 	ld  [ %i3 ], %o2
    294c:	96 10 00 10 	mov  %l0, %o3
    2950:	d0 07 a0 44 	ld  [ %fp + 0x44 ], %o0
    2954:	40 00 04 2c 	call  3a04 <_section0+0x27c4>
    2958:	92 10 00 13 	mov  %l3, %o1
    295c:	a8 10 00 08 	mov  %o0, %l4
    2960:	80 a2 3f ff 	cmp  %o0, -1
    2964:	02 80 03 b2 	be  382c <_section0+0x25ec>
    2968:	b6 06 e0 04 	add  %i3, 4, %i3
    296c:	10 bf fe 38 	b  224c <_section0+0x100c>
    2970:	c0 2f b8 f7 	clrb  [ %fp + -1801 ]
    2974:	03 23 80 29 	sethi  %hi(0x8e00a400), %g1
    2978:	82 10 63 38 	or  %g1, 0x338, %g1	! 8e00a738 <LEON_REG+0xe00a738>
    297c:	80 8f 60 10 	btst  0x10, %i5
    2980:	02 bf ff 67 	be  271c <_section0+0x14dc>
    2984:	c2 27 b8 d8 	st  %g1, [ %fp + -1832 ]
    2988:	82 10 00 1b 	mov  %i3, %g1
    298c:	b6 06 e0 04 	add  %i3, 4, %i3
    2990:	10 bf ff 68 	b  2730 <_section0+0x14f0>
    2994:	e0 00 40 00 	ld  [ %g1 ], %l0
    2998:	80 a5 bf ff 	cmp  %l6, -1
    299c:	02 80 03 3b 	be  3688 <_section0+0x2448>
    29a0:	82 1d 60 67 	xor  %l5, 0x67, %g1
    29a4:	80 a0 00 01 	cmp  %g0, %g1
    29a8:	98 60 3f ff 	subx  %g0, -1, %o4
    29ac:	82 1d 60 47 	xor  %l5, 0x47, %g1
    29b0:	80 a0 00 01 	cmp  %g0, %g1
    29b4:	9a 60 3f ff 	subx  %g0, -1, %o5
    29b8:	80 93 00 0d 	orcc  %o4, %o5, %g0
    29bc:	02 80 00 06 	be  29d4 <_section0+0x1794>
    29c0:	80 8f 60 08 	btst  8, %i5
    29c4:	80 a5 a0 00 	cmp  %l6, 0
    29c8:	22 80 00 02 	be,a   29d0 <_section0+0x1790>
    29cc:	ac 10 20 01 	mov  1, %l6
    29d0:	80 8f 60 08 	btst  8, %i5
    29d4:	02 80 01 fb 	be  31c0 <_section0+0x1f80>
    29d8:	d8 06 e0 04 	ld  [ %i3 + 4 ], %o4
    29dc:	da 06 c0 00 	ld  [ %i3 ], %o5
    29e0:	da 27 b9 48 	st  %o5, [ %fp + -1720 ]
    29e4:	d8 27 b9 4c 	st  %o4, [ %fp + -1716 ]
    29e8:	d0 1f b9 48 	ldd  [ %fp + -1720 ], %o0
    29ec:	d0 3f b8 e0 	std  %o0, [ %fp + -1824 ]
    29f0:	40 00 16 6b 	call  839c <_section0+0x715c>
    29f4:	d0 1f b8 e0 	ldd  [ %fp + -1824 ], %o0
    29f8:	80 a2 20 00 	cmp  %o0, 0
    29fc:	02 80 01 fb 	be  31e8 <_section0+0x1fa8>
    2a00:	b6 06 e0 08 	add  %i3, 8, %i3
    2a04:	1b 23 80 29 	sethi  %hi(0x8e00a400), %o5
    2a08:	d0 1f b8 e0 	ldd  [ %fp + -1824 ], %o0
    2a0c:	40 00 1c a4 	call  9c9c <_section0+0x8a5c>
    2a10:	d4 1b 63 78 	ldd  [ %o5 + 0x378 ], %o2
    2a14:	80 a2 20 00 	cmp  %o0, 0
    2a18:	06 80 03 3e 	bl  3710 <_section0+0x24d0>
    2a1c:	82 10 20 2d 	mov  0x2d, %g1
    2a20:	03 23 80 29 	sethi  %hi(0x8e00a400), %g1
    2a24:	a6 10 63 50 	or  %g1, 0x350, %l3	! 8e00a750 <LEON_REG+0xe00a750>
    2a28:	10 bf fe 09 	b  224c <_section0+0x100c>
    2a2c:	a8 10 20 03 	mov  3, %l4
    2a30:	c2 2f b8 f7 	stb  %g1, [ %fp + -1801 ]
    2a34:	10 bf fd ee 	b  21ec <_section0+0xfac>
    2a38:	a0 20 00 10 	neg  %l0
    2a3c:	40 00 0b 9a 	call  58a4 <_section0+0x4664>
    2a40:	01 00 00 00 	nop 
    2a44:	10 bf fd 23 	b  1ed0 <_section0+0xc90>
    2a48:	c2 16 60 0c 	lduh  [ %i1 + 0xc ], %g1
    2a4c:	40 00 20 07 	call  aa68 <_section0+0x9828>
    2a50:	90 06 60 58 	add  %i1, 0x58, %o0
    2a54:	d8 16 60 0c 	lduh  [ %i1 + 0xc ], %o4
    2a58:	10 bf fd 7f 	b  2054 <_section0+0xe14>
    2a5c:	d2 16 60 0e 	lduh  [ %i1 + 0xe ], %o1
    2a60:	80 8f 60 02 	btst  2, %i5
    2a64:	32 bf fe 03 	bne,a   2270 <_section0+0x1030>
    2a68:	ac 05 a0 02 	add  %l6, 2, %l6
    2a6c:	10 bf fe 02 	b  2274 <_section0+0x1034>
    2a70:	ae 8f 60 84 	andcc  %i5, 0x84, %l7
    2a74:	02 bf fe 44 	be  2384 <_section0+0x1144>
    2a78:	80 a5 e0 80 	cmp  %l7, 0x80
    2a7c:	82 10 20 30 	mov  0x30, %g1
    2a80:	c2 2f be 38 	stb  %g1, [ %fp + -456 ]
    2a84:	ea 2f be 39 	stb  %l5, [ %fp + -455 ]
    2a88:	82 10 20 02 	mov  2, %g1
    2a8c:	c2 24 a0 04 	st  %g1, [ %l2 + 4 ]
    2a90:	d8 07 bf e4 	ld  [ %fp + -28 ], %o4
    2a94:	c2 07 bf e8 	ld  [ %fp + -24 ], %g1
    2a98:	9a 07 be 38 	add  %fp, -456, %o5
    2a9c:	98 03 20 01 	inc  %o4
    2aa0:	da 24 80 00 	st  %o5, [ %l2 ]
    2aa4:	82 00 60 02 	add  %g1, 2, %g1
    2aa8:	c2 27 bf e8 	st  %g1, [ %fp + -24 ]
    2aac:	80 a3 20 07 	cmp  %o4, 7
    2ab0:	a4 04 a0 08 	add  %l2, 8, %l2
    2ab4:	04 bf fe 33 	ble  2380 <_section0+0x1140>
    2ab8:	d8 27 bf e4 	st  %o4, [ %fp + -28 ]
    2abc:	90 10 00 19 	mov  %i1, %o0
    2ac0:	7f ff fc dc 	call  1e30 <_section0+0xbf0>
    2ac4:	92 07 bf e0 	add  %fp, -32, %o1
    2ac8:	80 a2 20 00 	cmp  %o0, 0
    2acc:	12 80 00 b6 	bne  2da4 <_section0+0x1b64>
    2ad0:	80 a5 e0 80 	cmp  %l7, 0x80
    2ad4:	12 bf fe 2e 	bne  238c <_section0+0x114c>
    2ad8:	a4 10 00 1c 	mov  %i4, %l2
    2adc:	da 07 b8 ec 	ld  [ %fp + -1812 ], %o5
    2ae0:	a0 23 40 16 	sub  %o5, %l6, %l0
    2ae4:	80 a4 20 00 	cmp  %l0, 0
    2ae8:	04 bf fe 29 	ble  238c <_section0+0x114c>
    2aec:	80 a4 20 10 	cmp  %l0, 0x10
    2af0:	04 80 00 1d 	ble  2b64 <_section0+0x1924>
    2af4:	2f 23 80 29 	sethi  %hi(0x8e00a400), %l7
    2af8:	10 80 00 06 	b  2b10 <_section0+0x18d0>
    2afc:	a2 15 e2 f0 	or  %l7, 0x2f0, %l1	! 8e00a6f0 <LEON_REG+0xe00a6f0>
    2b00:	a0 04 3f f0 	add  %l0, -16, %l0
    2b04:	80 a4 20 10 	cmp  %l0, 0x10
    2b08:	04 80 00 18 	ble  2b68 <_section0+0x1928>
    2b0c:	82 15 e2 f0 	or  %l7, 0x2f0, %g1
    2b10:	82 10 20 10 	mov  0x10, %g1
    2b14:	c2 24 a0 04 	st  %g1, [ %l2 + 4 ]
    2b18:	da 07 bf e4 	ld  [ %fp + -28 ], %o5
    2b1c:	c2 07 bf e8 	ld  [ %fp + -24 ], %g1
    2b20:	9a 03 60 01 	inc  %o5
    2b24:	e2 24 80 00 	st  %l1, [ %l2 ]
    2b28:	82 00 60 10 	add  %g1, 0x10, %g1
    2b2c:	c2 27 bf e8 	st  %g1, [ %fp + -24 ]
    2b30:	80 a3 60 07 	cmp  %o5, 7
    2b34:	a4 04 a0 08 	add  %l2, 8, %l2
    2b38:	04 bf ff f2 	ble  2b00 <_section0+0x18c0>
    2b3c:	da 27 bf e4 	st  %o5, [ %fp + -28 ]
    2b40:	90 10 00 19 	mov  %i1, %o0
    2b44:	7f ff fc bb 	call  1e30 <_section0+0xbf0>
    2b48:	92 07 bf e0 	add  %fp, -32, %o1
    2b4c:	80 a2 20 00 	cmp  %o0, 0
    2b50:	12 80 00 95 	bne  2da4 <_section0+0x1b64>
    2b54:	a0 04 3f f0 	add  %l0, -16, %l0
    2b58:	80 a4 20 10 	cmp  %l0, 0x10
    2b5c:	14 bf ff ed 	bg  2b10 <_section0+0x18d0>
    2b60:	a4 10 00 1c 	mov  %i4, %l2
    2b64:	82 15 e2 f0 	or  %l7, 0x2f0, %g1
    2b68:	e0 24 a0 04 	st  %l0, [ %l2 + 4 ]
    2b6c:	c2 24 80 00 	st  %g1, [ %l2 ]
    2b70:	da 07 bf e8 	ld  [ %fp + -24 ], %o5
    2b74:	c2 07 bf e4 	ld  [ %fp + -28 ], %g1
    2b78:	82 00 60 01 	inc  %g1
    2b7c:	9a 03 40 10 	add  %o5, %l0, %o5
    2b80:	da 27 bf e8 	st  %o5, [ %fp + -24 ]
    2b84:	80 a0 60 07 	cmp  %g1, 7
    2b88:	a4 04 a0 08 	add  %l2, 8, %l2
    2b8c:	04 bf fe 00 	ble  238c <_section0+0x114c>
    2b90:	c2 27 bf e4 	st  %g1, [ %fp + -28 ]
    2b94:	90 10 00 19 	mov  %i1, %o0
    2b98:	7f ff fc a6 	call  1e30 <_section0+0xbf0>
    2b9c:	92 07 bf e0 	add  %fp, -32, %o1
    2ba0:	80 a2 20 00 	cmp  %o0, 0
    2ba4:	12 80 00 80 	bne  2da4 <_section0+0x1b64>
    2ba8:	a4 10 00 1c 	mov  %i4, %l2
    2bac:	10 bf fd f9 	b  2390 <_section0+0x1150>
    2bb0:	a0 26 00 14 	sub  %i0, %l4, %l0
    2bb4:	04 80 00 8b 	ble  2de0 <_section0+0x1ba0>
    2bb8:	c2 07 b9 04 	ld  [ %fp + -1788 ], %g1
    2bbc:	03 23 80 29 	sethi  %hi(0x8e00a400), %g1
    2bc0:	d0 1f b8 e0 	ldd  [ %fp + -1824 ], %o0
    2bc4:	40 00 1b d2 	call  9b0c <_section0+0x88cc>
    2bc8:	d4 18 63 78 	ldd  [ %g1 + 0x378 ], %o2
    2bcc:	80 a2 20 00 	cmp  %o0, 0
    2bd0:	12 80 00 c4 	bne  2ee0 <_section0+0x1ca0>
    2bd4:	c2 07 b9 08 	ld  [ %fp + -1784 ], %g1
    2bd8:	03 23 80 29 	sethi  %hi(0x8e00a400), %g1
    2bdc:	82 10 63 58 	or  %g1, 0x358, %g1	! 8e00a758 <LEON_REG+0xe00a758>
    2be0:	a0 10 20 01 	mov  1, %l0
    2be4:	e0 24 a0 04 	st  %l0, [ %l2 + 4 ]
    2be8:	c2 24 80 00 	st  %g1, [ %l2 ]
    2bec:	da 07 bf e4 	ld  [ %fp + -28 ], %o5
    2bf0:	c2 07 bf e8 	ld  [ %fp + -24 ], %g1
    2bf4:	9a 03 60 01 	inc  %o5
    2bf8:	82 00 60 01 	inc  %g1
    2bfc:	c2 27 bf e8 	st  %g1, [ %fp + -24 ]
    2c00:	80 a3 60 07 	cmp  %o5, 7
    2c04:	a4 04 a0 08 	add  %l2, 8, %l2
    2c08:	14 80 02 0c 	bg  3438 <_section0+0x21f8>
    2c0c:	da 27 bf e4 	st  %o5, [ %fp + -28 ]
    2c10:	da 07 b9 08 	ld  [ %fp + -1784 ], %o5
    2c14:	c2 07 b9 04 	ld  [ %fp + -1788 ], %g1
    2c18:	80 a3 40 01 	cmp  %o5, %g1
    2c1c:	26 80 00 06 	bl,a   2c34 <_section0+0x19f4>
    2c20:	e0 24 a0 04 	st  %l0, [ %l2 + 4 ]
    2c24:	80 8f 60 01 	btst  1, %i5
    2c28:	02 bf fe 1c 	be  2498 <_section0+0x1258>
    2c2c:	80 8f 60 04 	btst  4, %i5
    2c30:	e0 24 a0 04 	st  %l0, [ %l2 + 4 ]
    2c34:	da 07 bf e4 	ld  [ %fp + -28 ], %o5
    2c38:	c2 07 bf e8 	ld  [ %fp + -24 ], %g1
    2c3c:	d0 07 b8 e8 	ld  [ %fp + -1816 ], %o0
    2c40:	9a 03 60 01 	inc  %o5
    2c44:	d0 24 80 00 	st  %o0, [ %l2 ]
    2c48:	82 00 60 01 	inc  %g1
    2c4c:	c2 27 bf e8 	st  %g1, [ %fp + -24 ]
    2c50:	80 a3 60 07 	cmp  %o5, 7
    2c54:	a4 04 a0 08 	add  %l2, 8, %l2
    2c58:	14 80 02 34 	bg  3528 <_section0+0x22e8>
    2c5c:	da 27 bf e4 	st  %o5, [ %fp + -28 ]
    2c60:	c2 07 b9 04 	ld  [ %fp + -1788 ], %g1
    2c64:	a0 00 7f ff 	add  %g1, -1, %l0
    2c68:	80 a4 20 00 	cmp  %l0, 0
    2c6c:	04 bf fe 0a 	ble  2494 <_section0+0x1254>
    2c70:	80 a4 20 10 	cmp  %l0, 0x10
    2c74:	04 80 02 35 	ble  3548 <_section0+0x2308>
    2c78:	2f 23 80 29 	sethi  %hi(0x8e00a400), %l7
    2c7c:	10 80 00 06 	b  2c94 <_section0+0x1a54>
    2c80:	a2 15 e2 f0 	or  %l7, 0x2f0, %l1	! 8e00a6f0 <LEON_REG+0xe00a6f0>
    2c84:	a0 04 3f f0 	add  %l0, -16, %l0
    2c88:	80 a4 20 10 	cmp  %l0, 0x10
    2c8c:	04 80 00 18 	ble  2cec <_section0+0x1aac>
    2c90:	82 15 e2 f0 	or  %l7, 0x2f0, %g1
    2c94:	82 10 20 10 	mov  0x10, %g1
    2c98:	c2 24 a0 04 	st  %g1, [ %l2 + 4 ]
    2c9c:	da 07 bf e4 	ld  [ %fp + -28 ], %o5
    2ca0:	c2 07 bf e8 	ld  [ %fp + -24 ], %g1
    2ca4:	9a 03 60 01 	inc  %o5
    2ca8:	e2 24 80 00 	st  %l1, [ %l2 ]
    2cac:	82 00 60 10 	add  %g1, 0x10, %g1
    2cb0:	c2 27 bf e8 	st  %g1, [ %fp + -24 ]
    2cb4:	80 a3 60 07 	cmp  %o5, 7
    2cb8:	a4 04 a0 08 	add  %l2, 8, %l2
    2cbc:	04 bf ff f2 	ble  2c84 <_section0+0x1a44>
    2cc0:	da 27 bf e4 	st  %o5, [ %fp + -28 ]
    2cc4:	90 10 00 19 	mov  %i1, %o0
    2cc8:	7f ff fc 5a 	call  1e30 <_section0+0xbf0>
    2ccc:	92 07 bf e0 	add  %fp, -32, %o1
    2cd0:	80 a2 20 00 	cmp  %o0, 0
    2cd4:	12 80 00 34 	bne  2da4 <_section0+0x1b64>
    2cd8:	a0 04 3f f0 	add  %l0, -16, %l0
    2cdc:	80 a4 20 10 	cmp  %l0, 0x10
    2ce0:	14 bf ff ed 	bg  2c94 <_section0+0x1a54>
    2ce4:	a4 10 00 1c 	mov  %i4, %l2
    2ce8:	82 15 e2 f0 	or  %l7, 0x2f0, %g1
    2cec:	e0 24 a0 04 	st  %l0, [ %l2 + 4 ]
    2cf0:	c2 24 80 00 	st  %g1, [ %l2 ]
    2cf4:	da 07 bf e8 	ld  [ %fp + -24 ], %o5
    2cf8:	c2 07 bf e4 	ld  [ %fp + -28 ], %g1
    2cfc:	82 00 60 01 	inc  %g1
    2d00:	9a 03 40 10 	add  %o5, %l0, %o5
    2d04:	da 27 bf e8 	st  %o5, [ %fp + -24 ]
    2d08:	80 a0 60 07 	cmp  %g1, 7
    2d0c:	a4 04 a0 08 	add  %l2, 8, %l2
    2d10:	c2 27 bf e4 	st  %g1, [ %fp + -28 ]
    2d14:	04 bf fd e1 	ble  2498 <_section0+0x1258>
    2d18:	80 8f 60 04 	btst  4, %i5
    2d1c:	90 10 00 19 	mov  %i1, %o0
    2d20:	7f ff fc 44 	call  1e30 <_section0+0xbf0>
    2d24:	92 07 bf e0 	add  %fp, -32, %o1
    2d28:	80 a2 20 00 	cmp  %o0, 0
    2d2c:	12 80 00 1e 	bne  2da4 <_section0+0x1b64>
    2d30:	a4 10 00 1c 	mov  %i4, %l2
    2d34:	10 bf fd d9 	b  2498 <_section0+0x1258>
    2d38:	80 8f 60 04 	btst  4, %i5
    2d3c:	90 10 00 19 	mov  %i1, %o0
    2d40:	7f ff fc 3c 	call  1e30 <_section0+0xbf0>
    2d44:	92 07 bf e0 	add  %fp, -32, %o1
    2d48:	80 a2 20 00 	cmp  %o0, 0
    2d4c:	12 80 00 16 	bne  2da4 <_section0+0x1b64>
    2d50:	a4 10 00 1c 	mov  %i4, %l2
    2d54:	10 bf fd 7a 	b  233c <_section0+0x10fc>
    2d58:	c2 0f b8 f7 	ldub  [ %fp + -1801 ], %g1
    2d5c:	80 8b 20 ff 	btst  0xff, %o4
    2d60:	12 bf fe 28 	bne  2600 <_section0+0x13c0>
    2d64:	82 27 80 13 	sub  %fp, %l3, %g1
    2d68:	80 8f 60 01 	btst  1, %i5
    2d6c:	22 bf fd 38 	be,a   224c <_section0+0x100c>
    2d70:	a8 00 7f 9c 	add  %g1, -100, %l4
    2d74:	82 10 20 30 	mov  0x30, %g1
    2d78:	c2 2f bf 9b 	stb  %g1, [ %fp + -101 ]
    2d7c:	a6 07 bf 9b 	add  %fp, -101, %l3
    2d80:	82 27 80 13 	sub  %fp, %l3, %g1
    2d84:	10 bf fd 32 	b  224c <_section0+0x100c>
    2d88:	a8 00 7f 9c 	add  %g1, -100, %l4
    2d8c:	90 10 00 19 	mov  %i1, %o0
    2d90:	7f ff fc 28 	call  1e30 <_section0+0xbf0>
    2d94:	92 07 bf e0 	add  %fp, -32, %o1
    2d98:	80 a2 20 00 	cmp  %o0, 0
    2d9c:	02 bf fe 00 	be  259c <_section0+0x135c>
    2da0:	d8 07 b8 d4 	ld  [ %fp + -1836 ], %o4
    2da4:	da 07 b8 d4 	ld  [ %fp + -1836 ], %o5
    2da8:	80 a3 60 00 	cmp  %o5, 0
    2dac:	02 80 00 04 	be  2dbc <_section0+0x1b7c>
    2db0:	d0 07 a0 44 	ld  [ %fp + 0x44 ], %o0
    2db4:	40 00 0b 96 	call  5c0c <_section0+0x49cc>
    2db8:	92 10 00 0d 	mov  %o5, %o1
    2dbc:	c2 16 60 0c 	lduh  [ %i1 + 0xc ], %g1
    2dc0:	80 88 62 00 	btst  0x200, %g1
    2dc4:	02 80 00 c5 	be  30d8 <_section0+0x1e98>
    2dc8:	98 10 00 01 	mov  %g1, %o4
    2dcc:	80 8b 20 40 	btst  0x40, %o4
    2dd0:	02 80 03 00 	be  39d0 <_section0+0x2790>
    2dd4:	d0 07 b8 f0 	ld  [ %fp + -1808 ], %o0
    2dd8:	10 80 02 fe 	b  39d0 <_section0+0x2790>
    2ddc:	90 10 3f ff 	mov  -1, %o0
    2de0:	80 a0 60 01 	cmp  %g1, 1
    2de4:	04 80 00 c1 	ble  30e8 <_section0+0x1ea8>
    2de8:	80 8f 60 01 	btst  1, %i5
    2dec:	c2 0c c0 00 	ldub  [ %l3 ], %g1
    2df0:	c2 2f be 38 	stb  %g1, [ %fp + -456 ]
    2df4:	9a 10 20 2e 	mov  0x2e, %o5
    2df8:	da 2f be 39 	stb  %o5, [ %fp + -455 ]
    2dfc:	82 10 20 02 	mov  2, %g1
    2e00:	c2 24 a0 04 	st  %g1, [ %l2 + 4 ]
    2e04:	d8 07 bf e4 	ld  [ %fp + -28 ], %o4
    2e08:	c2 07 bf e8 	ld  [ %fp + -24 ], %g1
    2e0c:	9a 07 be 38 	add  %fp, -456, %o5
    2e10:	98 03 20 01 	inc  %o4
    2e14:	da 24 80 00 	st  %o5, [ %l2 ]
    2e18:	82 00 60 02 	add  %g1, 2, %g1
    2e1c:	c2 27 bf e8 	st  %g1, [ %fp + -24 ]
    2e20:	80 a3 20 07 	cmp  %o4, 7
    2e24:	a6 04 e0 01 	inc  %l3
    2e28:	a4 04 a0 08 	add  %l2, 8, %l2
    2e2c:	14 80 00 89 	bg  3050 <_section0+0x1e10>
    2e30:	d8 27 bf e4 	st  %o4, [ %fp + -28 ]
    2e34:	19 23 80 29 	sethi  %hi(0x8e00a400), %o4
    2e38:	d0 1f b8 e0 	ldd  [ %fp + -1824 ], %o0
    2e3c:	40 00 1b 4d 	call  9b70 <_section0+0x8930>
    2e40:	d4 1b 23 78 	ldd  [ %o4 + 0x378 ], %o2
    2e44:	80 a2 20 00 	cmp  %o0, 0
    2e48:	02 80 00 59 	be  2fac <_section0+0x1d6c>
    2e4c:	c2 07 b9 04 	ld  [ %fp + -1788 ], %g1
    2e50:	d8 07 b9 04 	ld  [ %fp + -1788 ], %o4
    2e54:	82 03 3f ff 	add  %o4, -1, %g1
    2e58:	c2 24 a0 04 	st  %g1, [ %l2 + 4 ]
    2e5c:	da 07 bf e8 	ld  [ %fp + -24 ], %o5
    2e60:	9a 03 40 0c 	add  %o5, %o4, %o5
    2e64:	c2 07 bf e4 	ld  [ %fp + -28 ], %g1
    2e68:	e6 24 80 00 	st  %l3, [ %l2 ]
    2e6c:	82 00 60 01 	inc  %g1
    2e70:	9a 03 7f ff 	add  %o5, -1, %o5
    2e74:	da 27 bf e8 	st  %o5, [ %fp + -24 ]
    2e78:	80 a0 60 07 	cmp  %g1, 7
    2e7c:	a4 04 a0 08 	add  %l2, 8, %l2
    2e80:	c2 27 bf e4 	st  %g1, [ %fp + -28 ]
    2e84:	14 80 00 7b 	bg  3070 <_section0+0x1e30>
    2e88:	90 10 00 19 	mov  %i1, %o0
    2e8c:	da 07 b8 dc 	ld  [ %fp + -1828 ], %o5
    2e90:	82 07 bf f0 	add  %fp, -16, %g1
    2e94:	da 24 a0 04 	st  %o5, [ %l2 + 4 ]
    2e98:	c2 24 80 00 	st  %g1, [ %l2 ]
    2e9c:	da 07 bf e4 	ld  [ %fp + -28 ], %o5
    2ea0:	c2 07 bf e8 	ld  [ %fp + -24 ], %g1
    2ea4:	d0 07 b8 dc 	ld  [ %fp + -1828 ], %o0
    2ea8:	9a 03 60 01 	inc  %o5
    2eac:	10 bf fd 74 	b  247c <_section0+0x123c>
    2eb0:	82 00 40 08 	add  %g1, %o0, %g1
    2eb4:	b6 06 e0 04 	add  %i3, 4, %i3
    2eb8:	e0 00 40 00 	ld  [ %g1 ], %l0
    2ebc:	10 bf fc bd 	b  21b0 <_section0+0xf70>
    2ec0:	98 10 20 00 	clr  %o4
    2ec4:	b6 06 e0 04 	add  %i3, 4, %i3
    2ec8:	10 bf fc c6 	b  21e0 <_section0+0xfa0>
    2ecc:	e0 00 40 00 	ld  [ %g1 ], %l0
    2ed0:	b6 06 e0 04 	add  %i3, 4, %i3
    2ed4:	e0 00 40 00 	ld  [ %g1 ], %l0
    2ed8:	10 bf fc a9 	b  217c <_section0+0xf3c>
    2edc:	98 10 20 01 	mov  1, %o4
    2ee0:	80 a0 60 00 	cmp  %g1, 0
    2ee4:	04 80 01 a5 	ble  3578 <_section0+0x2338>
    2ee8:	da 07 b9 04 	ld  [ %fp + -1788 ], %o5
    2eec:	80 a0 40 0d 	cmp  %g1, %o5
    2ef0:	26 80 00 8c 	bl,a   3120 <_section0+0x1ee0>
    2ef4:	c2 24 a0 04 	st  %g1, [ %l2 + 4 ]
    2ef8:	da 24 a0 04 	st  %o5, [ %l2 + 4 ]
    2efc:	c2 07 bf e8 	ld  [ %fp + -24 ], %g1
    2f00:	82 00 40 0d 	add  %g1, %o5, %g1
    2f04:	da 07 bf e4 	ld  [ %fp + -28 ], %o5
    2f08:	9a 03 60 01 	inc  %o5
    2f0c:	e6 24 80 00 	st  %l3, [ %l2 ]
    2f10:	c2 27 bf e8 	st  %g1, [ %fp + -24 ]
    2f14:	80 a3 60 07 	cmp  %o5, 7
    2f18:	a4 04 a0 08 	add  %l2, 8, %l2
    2f1c:	14 80 01 e5 	bg  36b0 <_section0+0x2470>
    2f20:	da 27 bf e4 	st  %o5, [ %fp + -28 ]
    2f24:	da 07 b9 08 	ld  [ %fp + -1784 ], %o5
    2f28:	c2 07 b9 04 	ld  [ %fp + -1788 ], %g1
    2f2c:	a0 23 40 01 	sub  %o5, %g1, %l0
    2f30:	80 a4 20 00 	cmp  %l0, 0
    2f34:	04 80 01 5a 	ble  349c <_section0+0x225c>
    2f38:	80 a4 20 10 	cmp  %l0, 0x10
    2f3c:	04 80 01 4c 	ble  346c <_section0+0x222c>
    2f40:	2f 23 80 29 	sethi  %hi(0x8e00a400), %l7
    2f44:	10 80 00 06 	b  2f5c <_section0+0x1d1c>
    2f48:	a2 15 e2 f0 	or  %l7, 0x2f0, %l1	! 8e00a6f0 <LEON_REG+0xe00a6f0>
    2f4c:	a0 04 3f f0 	add  %l0, -16, %l0
    2f50:	80 a4 20 10 	cmp  %l0, 0x10
    2f54:	04 80 01 47 	ble  3470 <_section0+0x2230>
    2f58:	82 15 e2 f0 	or  %l7, 0x2f0, %g1
    2f5c:	82 10 20 10 	mov  0x10, %g1
    2f60:	c2 24 a0 04 	st  %g1, [ %l2 + 4 ]
    2f64:	da 07 bf e4 	ld  [ %fp + -28 ], %o5
    2f68:	c2 07 bf e8 	ld  [ %fp + -24 ], %g1
    2f6c:	9a 03 60 01 	inc  %o5
    2f70:	e2 24 80 00 	st  %l1, [ %l2 ]
    2f74:	82 00 60 10 	add  %g1, 0x10, %g1
    2f78:	c2 27 bf e8 	st  %g1, [ %fp + -24 ]
    2f7c:	80 a3 60 07 	cmp  %o5, 7
    2f80:	a4 04 a0 08 	add  %l2, 8, %l2
    2f84:	04 bf ff f2 	ble  2f4c <_section0+0x1d0c>
    2f88:	da 27 bf e4 	st  %o5, [ %fp + -28 ]
    2f8c:	90 10 00 19 	mov  %i1, %o0
    2f90:	7f ff fb a8 	call  1e30 <_section0+0xbf0>
    2f94:	92 07 bf e0 	add  %fp, -32, %o1
    2f98:	80 a2 20 00 	cmp  %o0, 0
    2f9c:	12 bf ff 82 	bne  2da4 <_section0+0x1b64>
    2fa0:	a4 10 00 1c 	mov  %i4, %l2
    2fa4:	10 bf ff eb 	b  2f50 <_section0+0x1d10>
    2fa8:	a0 04 3f f0 	add  %l0, -16, %l0
    2fac:	a0 00 7f ff 	add  %g1, -1, %l0
    2fb0:	80 a4 20 00 	cmp  %l0, 0
    2fb4:	04 bf ff b6 	ble  2e8c <_section0+0x1c4c>
    2fb8:	80 a4 20 10 	cmp  %l0, 0x10
    2fbc:	04 80 01 45 	ble  34d0 <_section0+0x2290>
    2fc0:	2f 23 80 29 	sethi  %hi(0x8e00a400), %l7
    2fc4:	10 80 00 06 	b  2fdc <_section0+0x1d9c>
    2fc8:	a2 15 e2 f0 	or  %l7, 0x2f0, %l1	! 8e00a6f0 <LEON_REG+0xe00a6f0>
    2fcc:	a0 04 3f f0 	add  %l0, -16, %l0
    2fd0:	80 a4 20 10 	cmp  %l0, 0x10
    2fd4:	04 80 00 18 	ble  3034 <_section0+0x1df4>
    2fd8:	82 15 e2 f0 	or  %l7, 0x2f0, %g1
    2fdc:	82 10 20 10 	mov  0x10, %g1
    2fe0:	c2 24 a0 04 	st  %g1, [ %l2 + 4 ]
    2fe4:	da 07 bf e4 	ld  [ %fp + -28 ], %o5
    2fe8:	c2 07 bf e8 	ld  [ %fp + -24 ], %g1
    2fec:	9a 03 60 01 	inc  %o5
    2ff0:	e2 24 80 00 	st  %l1, [ %l2 ]
    2ff4:	82 00 60 10 	add  %g1, 0x10, %g1
    2ff8:	c2 27 bf e8 	st  %g1, [ %fp + -24 ]
    2ffc:	80 a3 60 07 	cmp  %o5, 7
    3000:	a4 04 a0 08 	add  %l2, 8, %l2
    3004:	04 bf ff f2 	ble  2fcc <_section0+0x1d8c>
    3008:	da 27 bf e4 	st  %o5, [ %fp + -28 ]
    300c:	90 10 00 19 	mov  %i1, %o0
    3010:	7f ff fb 88 	call  1e30 <_section0+0xbf0>
    3014:	92 07 bf e0 	add  %fp, -32, %o1
    3018:	80 a2 20 00 	cmp  %o0, 0
    301c:	12 bf ff 62 	bne  2da4 <_section0+0x1b64>
    3020:	a0 04 3f f0 	add  %l0, -16, %l0
    3024:	80 a4 20 10 	cmp  %l0, 0x10
    3028:	14 bf ff ed 	bg  2fdc <_section0+0x1d9c>
    302c:	a4 10 00 1c 	mov  %i4, %l2
    3030:	82 15 e2 f0 	or  %l7, 0x2f0, %g1
    3034:	e0 24 a0 04 	st  %l0, [ %l2 + 4 ]
    3038:	c2 24 80 00 	st  %g1, [ %l2 ]
    303c:	da 07 bf e8 	ld  [ %fp + -24 ], %o5
    3040:	c2 07 bf e4 	ld  [ %fp + -28 ], %g1
    3044:	9a 03 40 10 	add  %o5, %l0, %o5
    3048:	10 bf ff 8b 	b  2e74 <_section0+0x1c34>
    304c:	82 00 60 01 	inc  %g1
    3050:	90 10 00 19 	mov  %i1, %o0
    3054:	7f ff fb 77 	call  1e30 <_section0+0xbf0>
    3058:	92 07 bf e0 	add  %fp, -32, %o1
    305c:	80 a2 20 00 	cmp  %o0, 0
    3060:	12 bf ff 51 	bne  2da4 <_section0+0x1b64>
    3064:	a4 10 00 1c 	mov  %i4, %l2
    3068:	10 bf ff 74 	b  2e38 <_section0+0x1bf8>
    306c:	19 23 80 29 	sethi  %hi(0x8e00a400), %o4
    3070:	7f ff fb 70 	call  1e30 <_section0+0xbf0>
    3074:	92 07 bf e0 	add  %fp, -32, %o1
    3078:	80 a2 20 00 	cmp  %o0, 0
    307c:	12 bf ff 4a 	bne  2da4 <_section0+0x1b64>
    3080:	a4 10 00 1c 	mov  %i4, %l2
    3084:	10 bf ff 83 	b  2e90 <_section0+0x1c50>
    3088:	da 07 b8 dc 	ld  [ %fp + -1828 ], %o5
    308c:	80 a0 60 00 	cmp  %g1, 0
    3090:	12 bf fc 6b 	bne  223c <_section0+0xffc>
    3094:	03 23 80 29 	sethi  %hi(0x8e00a400), %g1
    3098:	82 0c 20 07 	and  %l0, 7, %g1
    309c:	a6 04 ff ff 	add  %l3, -1, %l3
    30a0:	82 00 60 30 	add  %g1, 0x30, %g1
    30a4:	a1 34 20 03 	srl  %l0, 3, %l0
    30a8:	80 a4 20 00 	cmp  %l0, 0
    30ac:	12 bf ff fb 	bne  3098 <_section0+0x1e58>
    30b0:	c2 2c c0 00 	stb  %g1, [ %l3 ]
    30b4:	80 8f 60 01 	btst  1, %i5
    30b8:	22 bf fd 52 	be,a   2600 <_section0+0x13c0>
    30bc:	82 27 80 13 	sub  %fp, %l3, %g1
    30c0:	80 a0 60 30 	cmp  %g1, 0x30
    30c4:	02 bf fd 4e 	be  25fc <_section0+0x13bc>
    30c8:	82 10 20 30 	mov  0x30, %g1
    30cc:	a6 04 ff ff 	add  %l3, -1, %l3
    30d0:	10 bf fd 4b 	b  25fc <_section0+0x13bc>
    30d4:	c2 2c c0 00 	stb  %g1, [ %l3 ]
    30d8:	40 00 1e 64 	call  aa68 <_section0+0x9828>
    30dc:	90 06 60 58 	add  %i1, 0x58, %o0
    30e0:	10 bf ff 3b 	b  2dcc <_section0+0x1b8c>
    30e4:	d8 16 60 0c 	lduh  [ %i1 + 0xc ], %o4
    30e8:	32 bf ff 42 	bne,a   2df0 <_section0+0x1bb0>
    30ec:	c2 0c c0 00 	ldub  [ %l3 ], %g1
    30f0:	82 10 20 01 	mov  1, %g1
    30f4:	c2 24 a0 04 	st  %g1, [ %l2 + 4 ]
    30f8:	da 07 bf e4 	ld  [ %fp + -28 ], %o5
    30fc:	c2 07 bf e8 	ld  [ %fp + -24 ], %g1
    3100:	9a 03 60 01 	inc  %o5
    3104:	e6 24 80 00 	st  %l3, [ %l2 ]
    3108:	82 00 60 01 	inc  %g1
    310c:	c2 27 bf e8 	st  %g1, [ %fp + -24 ]
    3110:	80 a3 60 07 	cmp  %o5, 7
    3114:	a4 04 a0 08 	add  %l2, 8, %l2
    3118:	10 bf ff 5b 	b  2e84 <_section0+0x1c44>
    311c:	da 27 bf e4 	st  %o5, [ %fp + -28 ]
    3120:	da 07 bf e8 	ld  [ %fp + -24 ], %o5
    3124:	9a 03 40 01 	add  %o5, %g1, %o5
    3128:	c2 07 bf e4 	ld  [ %fp + -28 ], %g1
    312c:	82 00 60 01 	inc  %g1
    3130:	e6 24 80 00 	st  %l3, [ %l2 ]
    3134:	da 27 bf e8 	st  %o5, [ %fp + -24 ]
    3138:	80 a0 60 07 	cmp  %g1, 7
    313c:	a4 04 a0 08 	add  %l2, 8, %l2
    3140:	14 80 01 6c 	bg  36f0 <_section0+0x24b0>
    3144:	c2 27 bf e4 	st  %g1, [ %fp + -28 ]
    3148:	03 23 80 29 	sethi  %hi(0x8e00a400), %g1
    314c:	9a 10 20 01 	mov  1, %o5
    3150:	82 10 63 60 	or  %g1, 0x360, %g1
    3154:	da 24 a0 04 	st  %o5, [ %l2 + 4 ]
    3158:	c2 24 80 00 	st  %g1, [ %l2 ]
    315c:	d8 07 bf e4 	ld  [ %fp + -28 ], %o4
    3160:	c2 07 bf e8 	ld  [ %fp + -24 ], %g1
    3164:	98 03 20 01 	inc  %o4
    3168:	82 00 60 01 	inc  %g1
    316c:	da 07 b9 08 	ld  [ %fp + -1784 ], %o5
    3170:	a6 04 c0 0d 	add  %l3, %o5, %l3
    3174:	c2 27 bf e8 	st  %g1, [ %fp + -24 ]
    3178:	80 a3 20 07 	cmp  %o4, 7
    317c:	a4 04 a0 08 	add  %l2, 8, %l2
    3180:	14 80 01 54 	bg  36d0 <_section0+0x2490>
    3184:	d8 27 bf e4 	st  %o4, [ %fp + -28 ]
    3188:	c2 07 b9 08 	ld  [ %fp + -1784 ], %g1
    318c:	d8 07 b9 04 	ld  [ %fp + -1788 ], %o4
    3190:	98 23 00 01 	sub  %o4, %g1, %o4
    3194:	d8 24 a0 04 	st  %o4, [ %l2 + 4 ]
    3198:	c2 07 bf e8 	ld  [ %fp + -24 ], %g1
    319c:	e6 24 80 00 	st  %l3, [ %l2 ]
    31a0:	10 bf fc b5 	b  2474 <_section0+0x1234>
    31a4:	82 00 40 0c 	add  %g1, %o4, %g1
    31a8:	02 80 01 3a 	be  3690 <_section0+0x2450>
    31ac:	da 06 c0 00 	ld  [ %i3 ], %o5
    31b0:	d2 07 b8 f0 	ld  [ %fp + -1808 ], %o1
    31b4:	d2 33 40 00 	sth  %o1, [ %o5 ]
    31b8:	10 bf fb 58 	b  1f18 <_section0+0xcd8>
    31bc:	b6 06 e0 04 	add  %i3, 4, %i3
    31c0:	da 06 c0 00 	ld  [ %i3 ], %o5
    31c4:	da 27 b9 40 	st  %o5, [ %fp + -1728 ]
    31c8:	d8 27 b9 44 	st  %o4, [ %fp + -1724 ]
    31cc:	d8 1f b9 40 	ldd  [ %fp + -1728 ], %o4
    31d0:	d8 3f b8 e0 	std  %o4, [ %fp + -1824 ]
    31d4:	40 00 14 72 	call  839c <_section0+0x715c>
    31d8:	d0 1f b8 e0 	ldd  [ %fp + -1824 ], %o0
    31dc:	80 a2 20 00 	cmp  %o0, 0
    31e0:	12 bf fe 09 	bne  2a04 <_section0+0x17c4>
    31e4:	b6 06 e0 08 	add  %i3, 8, %i3
    31e8:	40 00 14 7b 	call  83d4 <_section0+0x7194>
    31ec:	d0 1f b8 e0 	ldd  [ %fp + -1824 ], %o0
    31f0:	03 23 80 29 	sethi  %hi(0x8e00a400), %g1
    31f4:	80 a2 20 00 	cmp  %o0, 0
    31f8:	a6 10 63 68 	or  %g1, 0x368, %l3
    31fc:	12 bf fc 14 	bne  224c <_section0+0x100c>
    3200:	a8 10 20 03 	mov  3, %l4
    3204:	d0 1f b8 e0 	ldd  [ %fp + -1824 ], %o0
    3208:	ba 17 61 00 	or  %i5, 0x100, %i5
    320c:	80 a5 60 66 	cmp  %l5, 0x66
    3210:	d0 3f b8 c8 	std  %o0, [ %fp + -1848 ]
    3214:	a2 10 00 16 	mov  %l6, %l1
    3218:	94 07 b9 0f 	add  %fp, -1777, %o2
    321c:	a8 07 b9 08 	add  %fp, -1784, %l4
    3220:	02 80 00 0c 	be  3250 <_section0+0x2010>
    3224:	96 10 20 03 	mov  3, %o3
    3228:	82 1d 60 65 	xor  %l5, 0x65, %g1
    322c:	80 a0 00 01 	cmp  %g0, %g1
    3230:	98 60 3f ff 	subx  %g0, -1, %o4
    3234:	82 1d 60 45 	xor  %l5, 0x45, %g1
    3238:	80 a0 00 01 	cmp  %g0, %g1
    323c:	9a 60 3f ff 	subx  %g0, -1, %o5
    3240:	80 93 00 0d 	orcc  %o4, %o5, %g0
    3244:	32 80 00 02 	bne,a   324c <_section0+0x200c>
    3248:	a2 05 a0 01 	add  %l6, 1, %l1
    324c:	96 10 20 02 	mov  2, %o3
    3250:	d8 1f b8 c8 	ldd  [ %fp + -1848 ], %o4
    3254:	80 a3 20 00 	cmp  %o4, 0
    3258:	06 80 01 93 	bl  38a4 <_section0+0x2664>
    325c:	82 10 20 2d 	mov  0x2d, %g1
    3260:	c0 2a 80 00 	clrb  [ %o2 ]
    3264:	9a 07 b8 fc 	add  %fp, -1796, %o5
    3268:	82 07 b9 00 	add  %fp, -1792, %g1
    326c:	da 23 a0 60 	st  %o5, [ %sp + 0x60 ]
    3270:	c2 23 a0 5c 	st  %g1, [ %sp + 0x5c ]
    3274:	d2 07 b8 c8 	ld  [ %fp + -1848 ], %o1
    3278:	9a 10 00 14 	mov  %l4, %o5
    327c:	d0 07 a0 44 	ld  [ %fp + 0x44 ], %o0
    3280:	d4 07 b8 cc 	ld  [ %fp + -1844 ], %o2
    3284:	40 00 04 40 	call  4384 <_section0+0x3144>
    3288:	98 10 00 11 	mov  %l1, %o4
    328c:	92 1d 60 67 	xor  %l5, 0x67, %o1
    3290:	80 a0 00 09 	cmp  %g0, %o1
    3294:	9a 40 20 00 	addx  %g0, 0, %o5
    3298:	ae 1d 60 47 	xor  %l5, 0x47, %l7
    329c:	80 a0 00 17 	cmp  %g0, %l7
    32a0:	82 40 20 00 	addx  %g0, 0, %g1
    32a4:	a6 10 00 08 	mov  %o0, %l3
    32a8:	80 8b 40 01 	btst  %o5, %g1
    32ac:	12 80 00 05 	bne  32c0 <_section0+0x2080>
    32b0:	d2 27 b8 c4 	st  %o1, [ %fp + -1852 ]
    32b4:	80 8f 60 01 	btst  1, %i5
    32b8:	02 80 00 16 	be  3310 <_section0+0x20d0>
    32bc:	da 07 b8 fc 	ld  [ %fp + -1796 ], %o5
    32c0:	80 a5 60 66 	cmp  %l5, 0x66
    32c4:	02 80 01 8d 	be  38f8 <_section0+0x26b8>
    32c8:	a0 04 c0 11 	add  %l3, %l1, %l0
    32cc:	1b 23 80 29 	sethi  %hi(0x8e00a400), %o5
    32d0:	d0 1f b8 c8 	ldd  [ %fp + -1848 ], %o0
    32d4:	40 00 1a 0e 	call  9b0c <_section0+0x88cc>
    32d8:	d4 1b 63 78 	ldd  [ %o5 + 0x378 ], %o2
    32dc:	80 a2 20 00 	cmp  %o0, 0
    32e0:	12 80 00 04 	bne  32f0 <_section0+0x20b0>
    32e4:	da 07 b8 fc 	ld  [ %fp + -1796 ], %o5
    32e8:	9a 10 00 10 	mov  %l0, %o5
    32ec:	e0 27 b8 fc 	st  %l0, [ %fp + -1796 ]
    32f0:	80 a3 40 10 	cmp  %o5, %l0
    32f4:	1a 80 00 07 	bcc  3310 <_section0+0x20d0>
    32f8:	82 10 20 30 	mov  0x30, %g1
    32fc:	c2 2b 40 00 	stb  %g1, [ %o5 ]
    3300:	9a 03 60 01 	inc  %o5
    3304:	80 a3 40 10 	cmp  %o5, %l0
    3308:	0a bf ff fd 	bcs  32fc <_section0+0x20bc>
    330c:	da 27 b8 fc 	st  %o5, [ %fp + -1796 ]
    3310:	c2 07 b8 c4 	ld  [ %fp + -1852 ], %g1
    3314:	80 a0 00 01 	cmp  %g0, %g1
    3318:	82 60 3f ff 	subx  %g0, -1, %g1
    331c:	80 a0 00 17 	cmp  %g0, %l7
    3320:	9a 23 40 13 	sub  %o5, %l3, %o5
    3324:	98 60 3f ff 	subx  %g0, -1, %o4
    3328:	80 90 40 0c 	orcc  %g1, %o4, %g0
    332c:	02 80 01 36 	be  3804 <_section0+0x25c4>
    3330:	da 27 b9 04 	st  %o5, [ %fp + -1788 ]
    3334:	d0 07 b9 08 	ld  [ %fp + -1784 ], %o0
    3338:	80 a2 3f fc 	cmp  %o0, -4
    333c:	04 80 00 06 	ble  3354 <_section0+0x2114>
    3340:	9a 1d 60 67 	xor  %l5, 0x67, %o5
    3344:	80 a2 00 16 	cmp  %o0, %l6
    3348:	24 80 01 0e 	ble,a   3780 <_section0+0x2540>
    334c:	aa 10 20 67 	mov  0x67, %l5
    3350:	9a 1d 60 67 	xor  %l5, 0x67, %o5
    3354:	80 a0 00 0d 	cmp  %g0, %o5
    3358:	82 60 20 00 	subx  %g0, 0, %g1
    335c:	82 08 7f e0 	and  %g1, -32, %g1
    3360:	aa 00 60 65 	add  %g1, 0x65, %l5
    3364:	80 a5 60 65 	cmp  %l5, 0x65
    3368:	14 80 01 04 	bg  3778 <_section0+0x2538>
    336c:	80 a5 60 66 	cmp  %l5, 0x66
    3370:	90 02 3f ff 	add  %o0, -1, %o0
    3374:	d0 27 b9 08 	st  %o0, [ %fp + -1784 ]
    3378:	ea 2f bf f0 	stb  %l5, [ %fp + -16 ]
    337c:	80 a2 20 00 	cmp  %o0, 0
    3380:	06 80 01 7f 	bl  397c <_section0+0x273c>
    3384:	a0 10 00 08 	mov  %o0, %l0
    3388:	82 10 20 2b 	mov  0x2b, %g1
    338c:	c2 2f bf f1 	stb  %g1, [ %fp + -15 ]
    3390:	ac 07 b9 40 	add  %fp, -1728, %l6
    3394:	a8 07 bf f2 	add  %fp, -14, %l4
    3398:	80 a4 20 09 	cmp  %l0, 9
    339c:	04 80 01 3b 	ble  3888 <_section0+0x2648>
    33a0:	a2 10 00 16 	mov  %l6, %l1
    33a4:	90 10 00 10 	mov  %l0, %o0
    33a8:	40 00 16 fb 	call  8f94 <_section0+0x7d54>
    33ac:	92 10 20 0a 	mov  0xa, %o1
    33b0:	90 02 20 30 	add  %o0, 0x30, %o0
    33b4:	a2 04 7f ff 	add  %l1, -1, %l1
    33b8:	d0 2c 40 00 	stb  %o0, [ %l1 ]
    33bc:	90 10 00 10 	mov  %l0, %o0
    33c0:	40 00 16 49 	call  8ce4 <_section0+0x7aa4>
    33c4:	92 10 20 0a 	mov  0xa, %o1
    33c8:	80 a2 20 09 	cmp  %o0, 9
    33cc:	14 bf ff f6 	bg  33a4 <_section0+0x2164>
    33d0:	a0 10 00 08 	mov  %o0, %l0
    33d4:	a2 04 7f ff 	add  %l1, -1, %l1
    33d8:	82 02 20 30 	add  %o0, 0x30, %g1
    33dc:	10 80 00 05 	b  33f0 <_section0+0x21b0>
    33e0:	c2 2c 40 00 	stb  %g1, [ %l1 ]
    33e4:	c2 2d 00 00 	stb  %g1, [ %l4 ]
    33e8:	a2 04 60 01 	inc  %l1
    33ec:	a8 05 20 01 	inc  %l4
    33f0:	80 a5 80 11 	cmp  %l6, %l1
    33f4:	38 bf ff fc 	bgu,a   33e4 <_section0+0x21a4>
    33f8:	c2 0c 40 00 	ldub  [ %l1 ], %g1
    33fc:	82 07 bf f0 	add  %fp, -16, %g1
    3400:	a8 25 00 01 	sub  %l4, %g1, %l4
    3404:	da 07 b9 04 	ld  [ %fp + -1788 ], %o5
    3408:	e8 27 b8 dc 	st  %l4, [ %fp + -1828 ]
    340c:	80 a3 60 01 	cmp  %o5, 1
    3410:	04 80 00 e1 	ble  3794 <_section0+0x2554>
    3414:	a8 05 00 0d 	add  %l4, %o5, %l4
    3418:	a8 05 20 01 	inc  %l4
    341c:	c2 4f b9 0f 	ldsb  [ %fp + -1777 ], %g1
    3420:	80 a0 60 00 	cmp  %g1, 0
    3424:	02 bf fb 8b 	be  2250 <_section0+0x1010>
    3428:	80 a5 00 18 	cmp  %l4, %i0
    342c:	82 10 20 2d 	mov  0x2d, %g1
    3430:	10 bf fb 88 	b  2250 <_section0+0x1010>
    3434:	c2 2f b8 f7 	stb  %g1, [ %fp + -1801 ]
    3438:	90 10 00 19 	mov  %i1, %o0
    343c:	7f ff fa 7d 	call  1e30 <_section0+0xbf0>
    3440:	92 07 bf e0 	add  %fp, -32, %o1
    3444:	80 a2 20 00 	cmp  %o0, 0
    3448:	12 bf fe 57 	bne  2da4 <_section0+0x1b64>
    344c:	a4 10 00 1c 	mov  %i4, %l2
    3450:	10 bf fd f1 	b  2c14 <_section0+0x19d4>
    3454:	da 07 b9 08 	ld  [ %fp + -1784 ], %o5
    3458:	da 2f be 40 	stb  %o5, [ %fp + -448 ]
    345c:	b6 06 e0 04 	add  %i3, 4, %i3
    3460:	a8 10 20 01 	mov  1, %l4
    3464:	10 bf fb 7a 	b  224c <_section0+0x100c>
    3468:	c0 2f b8 f7 	clrb  [ %fp + -1801 ]
    346c:	82 15 e2 f0 	or  %l7, 0x2f0, %g1
    3470:	e0 24 a0 04 	st  %l0, [ %l2 + 4 ]
    3474:	c2 24 80 00 	st  %g1, [ %l2 ]
    3478:	da 07 bf e8 	ld  [ %fp + -24 ], %o5
    347c:	c2 07 bf e4 	ld  [ %fp + -28 ], %g1
    3480:	82 00 60 01 	inc  %g1
    3484:	9a 03 40 10 	add  %o5, %l0, %o5
    3488:	da 27 bf e8 	st  %o5, [ %fp + -24 ]
    348c:	80 a0 60 07 	cmp  %g1, 7
    3490:	a4 04 a0 08 	add  %l2, 8, %l2
    3494:	14 80 00 c5 	bg  37a8 <_section0+0x2568>
    3498:	c2 27 bf e4 	st  %g1, [ %fp + -28 ]
    349c:	80 8f 60 01 	btst  1, %i5
    34a0:	02 bf fb fe 	be  2498 <_section0+0x1258>
    34a4:	80 8f 60 04 	btst  4, %i5
    34a8:	03 23 80 29 	sethi  %hi(0x8e00a400), %g1
    34ac:	9a 10 20 01 	mov  1, %o5
    34b0:	82 10 63 60 	or  %g1, 0x360, %g1
    34b4:	da 24 a0 04 	st  %o5, [ %l2 + 4 ]
    34b8:	c2 24 80 00 	st  %g1, [ %l2 ]
    34bc:	da 07 bf e4 	ld  [ %fp + -28 ], %o5
    34c0:	c2 07 bf e8 	ld  [ %fp + -24 ], %g1
    34c4:	9a 03 60 01 	inc  %o5
    34c8:	10 bf fb ed 	b  247c <_section0+0x123c>
    34cc:	82 00 60 01 	inc  %g1
    34d0:	82 15 e2 f0 	or  %l7, 0x2f0, %g1
    34d4:	e0 24 a0 04 	st  %l0, [ %l2 + 4 ]
    34d8:	c2 24 80 00 	st  %g1, [ %l2 ]
    34dc:	da 07 bf e8 	ld  [ %fp + -24 ], %o5
    34e0:	c2 07 bf e4 	ld  [ %fp + -28 ], %g1
    34e4:	9a 03 40 10 	add  %o5, %l0, %o5
    34e8:	10 bf fe 63 	b  2e74 <_section0+0x1c34>
    34ec:	82 00 60 01 	inc  %g1
    34f0:	06 bf fb 54 	bl  2240 <_section0+0x1000>
    34f4:	90 10 00 13 	mov  %l3, %o0
    34f8:	92 10 20 00 	clr  %o1
    34fc:	40 00 0e 28 	call  6d9c <_section0+0x5b5c>
    3500:	94 10 00 16 	mov  %l6, %o2
    3504:	80 a2 20 00 	cmp  %o0, 0
    3508:	02 bf fb 51 	be  224c <_section0+0x100c>
    350c:	a8 10 00 16 	mov  %l6, %l4
    3510:	a8 22 00 13 	sub  %o0, %l3, %l4
    3514:	80 a5 00 16 	cmp  %l4, %l6
    3518:	34 bf fb 4d 	bg,a   224c <_section0+0x100c>
    351c:	a8 10 00 16 	mov  %l6, %l4
    3520:	10 bf fb 4c 	b  2250 <_section0+0x1010>
    3524:	80 a5 00 18 	cmp  %l4, %i0
    3528:	90 10 00 19 	mov  %i1, %o0
    352c:	7f ff fa 41 	call  1e30 <_section0+0xbf0>
    3530:	92 07 bf e0 	add  %fp, -32, %o1
    3534:	80 a2 20 00 	cmp  %o0, 0
    3538:	12 bf fe 1b 	bne  2da4 <_section0+0x1b64>
    353c:	a4 10 00 1c 	mov  %i4, %l2
    3540:	10 bf fd c9 	b  2c64 <_section0+0x1a24>
    3544:	c2 07 b9 04 	ld  [ %fp + -1788 ], %g1
    3548:	82 15 e2 f0 	or  %l7, 0x2f0, %g1
    354c:	e0 24 a0 04 	st  %l0, [ %l2 + 4 ]
    3550:	c2 24 80 00 	st  %g1, [ %l2 ]
    3554:	da 07 bf e8 	ld  [ %fp + -24 ], %o5
    3558:	c2 07 bf e4 	ld  [ %fp + -28 ], %g1
    355c:	82 00 60 01 	inc  %g1
    3560:	9a 03 40 10 	add  %o5, %l0, %o5
    3564:	da 27 bf e8 	st  %o5, [ %fp + -24 ]
    3568:	80 a0 60 07 	cmp  %g1, 7
    356c:	a4 04 a0 08 	add  %l2, 8, %l2
    3570:	10 bf fd e9 	b  2d14 <_section0+0x1ad4>
    3574:	c2 27 bf e4 	st  %g1, [ %fp + -28 ]
    3578:	03 23 80 29 	sethi  %hi(0x8e00a400), %g1
    357c:	82 10 63 58 	or  %g1, 0x358, %g1	! 8e00a758 <LEON_REG+0xe00a758>
    3580:	a0 10 20 01 	mov  1, %l0
    3584:	e0 24 a0 04 	st  %l0, [ %l2 + 4 ]
    3588:	c2 24 80 00 	st  %g1, [ %l2 ]
    358c:	da 07 bf e4 	ld  [ %fp + -28 ], %o5
    3590:	c2 07 bf e8 	ld  [ %fp + -24 ], %g1
    3594:	9a 03 60 01 	inc  %o5
    3598:	82 00 60 01 	inc  %g1
    359c:	c2 27 bf e8 	st  %g1, [ %fp + -24 ]
    35a0:	80 a3 60 07 	cmp  %o5, 7
    35a4:	a4 04 a0 08 	add  %l2, 8, %l2
    35a8:	14 80 00 88 	bg  37c8 <_section0+0x2588>
    35ac:	da 27 bf e4 	st  %o5, [ %fp + -28 ]
    35b0:	c2 07 b9 08 	ld  [ %fp + -1784 ], %g1
    35b4:	80 a0 60 00 	cmp  %g1, 0
    35b8:	32 80 00 07 	bne,a   35d4 <_section0+0x2394>
    35bc:	e0 24 a0 04 	st  %l0, [ %l2 + 4 ]
    35c0:	c2 07 b9 04 	ld  [ %fp + -1788 ], %g1
    35c4:	80 a0 60 00 	cmp  %g1, 0
    35c8:	02 bf fb b4 	be  2498 <_section0+0x1258>
    35cc:	80 8f 60 04 	btst  4, %i5
    35d0:	e0 24 a0 04 	st  %l0, [ %l2 + 4 ]
    35d4:	da 07 bf e4 	ld  [ %fp + -28 ], %o5
    35d8:	c2 07 bf e8 	ld  [ %fp + -24 ], %g1
    35dc:	d2 07 b8 e8 	ld  [ %fp + -1816 ], %o1
    35e0:	9a 03 60 01 	inc  %o5
    35e4:	d2 24 80 00 	st  %o1, [ %l2 ]
    35e8:	82 00 60 01 	inc  %g1
    35ec:	c2 27 bf e8 	st  %g1, [ %fp + -24 ]
    35f0:	80 a3 60 07 	cmp  %o5, 7
    35f4:	a4 04 a0 08 	add  %l2, 8, %l2
    35f8:	14 80 00 85 	bg  380c <_section0+0x25cc>
    35fc:	da 27 bf e4 	st  %o5, [ %fp + -28 ]
    3600:	c2 07 b9 08 	ld  [ %fp + -1784 ], %g1
    3604:	a0 20 00 01 	neg  %g1, %l0
    3608:	80 a4 20 00 	cmp  %l0, 0
    360c:	04 80 00 50 	ble  374c <_section0+0x250c>
    3610:	c2 07 b9 04 	ld  [ %fp + -1788 ], %g1
    3614:	80 a4 20 10 	cmp  %l0, 0x10
    3618:	04 80 00 40 	ble  3718 <_section0+0x24d8>
    361c:	2f 23 80 29 	sethi  %hi(0x8e00a400), %l7
    3620:	10 80 00 06 	b  3638 <_section0+0x23f8>
    3624:	a2 15 e2 f0 	or  %l7, 0x2f0, %l1	! 8e00a6f0 <LEON_REG+0xe00a6f0>
    3628:	a0 04 3f f0 	add  %l0, -16, %l0
    362c:	80 a4 20 10 	cmp  %l0, 0x10
    3630:	04 80 00 3b 	ble  371c <_section0+0x24dc>
    3634:	82 15 e2 f0 	or  %l7, 0x2f0, %g1
    3638:	82 10 20 10 	mov  0x10, %g1
    363c:	c2 24 a0 04 	st  %g1, [ %l2 + 4 ]
    3640:	da 07 bf e4 	ld  [ %fp + -28 ], %o5
    3644:	c2 07 bf e8 	ld  [ %fp + -24 ], %g1
    3648:	9a 03 60 01 	inc  %o5
    364c:	e2 24 80 00 	st  %l1, [ %l2 ]
    3650:	82 00 60 10 	add  %g1, 0x10, %g1
    3654:	c2 27 bf e8 	st  %g1, [ %fp + -24 ]
    3658:	80 a3 60 07 	cmp  %o5, 7
    365c:	a4 04 a0 08 	add  %l2, 8, %l2
    3660:	04 bf ff f2 	ble  3628 <_section0+0x23e8>
    3664:	da 27 bf e4 	st  %o5, [ %fp + -28 ]
    3668:	90 10 00 19 	mov  %i1, %o0
    366c:	7f ff f9 f1 	call  1e30 <_section0+0xbf0>
    3670:	92 07 bf e0 	add  %fp, -32, %o1
    3674:	80 a2 20 00 	cmp  %o0, 0
    3678:	12 bf fd cb 	bne  2da4 <_section0+0x1b64>
    367c:	a4 10 00 1c 	mov  %i4, %l2
    3680:	10 bf ff eb 	b  362c <_section0+0x23ec>
    3684:	a0 04 3f f0 	add  %l0, -16, %l0
    3688:	10 bf fc d2 	b  29d0 <_section0+0x1790>
    368c:	ac 10 20 06 	mov  6, %l6
    3690:	d6 07 b8 f0 	ld  [ %fp + -1808 ], %o3
    3694:	d6 23 40 00 	st  %o3, [ %o5 ]
    3698:	10 bf fa 20 	b  1f18 <_section0+0xcd8>
    369c:	b6 06 e0 04 	add  %i3, 4, %i3
    36a0:	03 23 80 29 	sethi  %hi(0x8e00a400), %g1
    36a4:	a6 10 63 70 	or  %g1, 0x370, %l3	! 8e00a770 <LEON_REG+0xe00a770>
    36a8:	10 bf fa e9 	b  224c <_section0+0x100c>
    36ac:	a8 10 20 06 	mov  6, %l4
    36b0:	90 10 00 19 	mov  %i1, %o0
    36b4:	7f ff f9 df 	call  1e30 <_section0+0xbf0>
    36b8:	92 07 bf e0 	add  %fp, -32, %o1
    36bc:	80 a2 20 00 	cmp  %o0, 0
    36c0:	12 bf fd b9 	bne  2da4 <_section0+0x1b64>
    36c4:	a4 10 00 1c 	mov  %i4, %l2
    36c8:	10 bf fe 18 	b  2f28 <_section0+0x1ce8>
    36cc:	da 07 b9 08 	ld  [ %fp + -1784 ], %o5
    36d0:	90 10 00 19 	mov  %i1, %o0
    36d4:	7f ff f9 d7 	call  1e30 <_section0+0xbf0>
    36d8:	92 07 bf e0 	add  %fp, -32, %o1
    36dc:	80 a2 20 00 	cmp  %o0, 0
    36e0:	12 bf fd b1 	bne  2da4 <_section0+0x1b64>
    36e4:	a4 10 00 1c 	mov  %i4, %l2
    36e8:	10 bf fe a9 	b  318c <_section0+0x1f4c>
    36ec:	c2 07 b9 08 	ld  [ %fp + -1784 ], %g1
    36f0:	90 10 00 19 	mov  %i1, %o0
    36f4:	7f ff f9 cf 	call  1e30 <_section0+0xbf0>
    36f8:	92 07 bf e0 	add  %fp, -32, %o1
    36fc:	80 a2 20 00 	cmp  %o0, 0
    3700:	12 bf fd a9 	bne  2da4 <_section0+0x1b64>
    3704:	a4 10 00 1c 	mov  %i4, %l2
    3708:	10 bf fe 91 	b  314c <_section0+0x1f0c>
    370c:	03 23 80 29 	sethi  %hi(0x8e00a400), %g1
    3710:	10 bf fc c4 	b  2a20 <_section0+0x17e0>
    3714:	c2 2f b8 f7 	stb  %g1, [ %fp + -1801 ]
    3718:	82 15 e2 f0 	or  %l7, 0x2f0, %g1
    371c:	e0 24 a0 04 	st  %l0, [ %l2 + 4 ]
    3720:	c2 24 80 00 	st  %g1, [ %l2 ]
    3724:	da 07 bf e8 	ld  [ %fp + -24 ], %o5
    3728:	c2 07 bf e4 	ld  [ %fp + -28 ], %g1
    372c:	82 00 60 01 	inc  %g1
    3730:	9a 03 40 10 	add  %o5, %l0, %o5
    3734:	da 27 bf e8 	st  %o5, [ %fp + -24 ]
    3738:	80 a0 60 07 	cmp  %g1, 7
    373c:	a4 04 a0 08 	add  %l2, 8, %l2
    3740:	14 80 00 3f 	bg  383c <_section0+0x25fc>
    3744:	c2 27 bf e4 	st  %g1, [ %fp + -28 ]
    3748:	c2 07 b9 04 	ld  [ %fp + -1788 ], %g1
    374c:	c2 24 a0 04 	st  %g1, [ %l2 + 4 ]
    3750:	da 07 bf e8 	ld  [ %fp + -24 ], %o5
    3754:	d8 07 bf e4 	ld  [ %fp + -28 ], %o4
    3758:	98 03 20 01 	inc  %o4
    375c:	e6 24 80 00 	st  %l3, [ %l2 ]
    3760:	9a 03 40 01 	add  %o5, %g1, %o5
    3764:	da 27 bf e8 	st  %o5, [ %fp + -24 ]
    3768:	80 a3 20 07 	cmp  %o4, 7
    376c:	a4 04 a0 08 	add  %l2, 8, %l2
    3770:	10 bf fb 47 	b  248c <_section0+0x124c>
    3774:	d8 27 bf e4 	st  %o4, [ %fp + -28 ]
    3778:	02 80 00 77 	be  3954 <_section0+0x2714>
    377c:	80 a2 20 00 	cmp  %o0, 0
    3780:	da 07 b9 04 	ld  [ %fp + -1788 ], %o5
    3784:	80 a2 00 0d 	cmp  %o0, %o5
    3788:	06 80 00 6e 	bl  3940 <_section0+0x2700>
    378c:	82 23 40 08 	sub  %o5, %o0, %g1
    3790:	a8 10 00 08 	mov  %o0, %l4
    3794:	80 8f 60 01 	btst  1, %i5
    3798:	02 bf ff 22 	be  3420 <_section0+0x21e0>
    379c:	c2 4f b9 0f 	ldsb  [ %fp + -1777 ], %g1
    37a0:	10 bf ff 20 	b  3420 <_section0+0x21e0>
    37a4:	a8 05 20 01 	inc  %l4
    37a8:	90 10 00 19 	mov  %i1, %o0
    37ac:	7f ff f9 a1 	call  1e30 <_section0+0xbf0>
    37b0:	92 07 bf e0 	add  %fp, -32, %o1
    37b4:	80 a2 20 00 	cmp  %o0, 0
    37b8:	12 bf fd 7b 	bne  2da4 <_section0+0x1b64>
    37bc:	a4 10 00 1c 	mov  %i4, %l2
    37c0:	10 bf ff 38 	b  34a0 <_section0+0x2260>
    37c4:	80 8f 60 01 	btst  1, %i5
    37c8:	90 10 00 19 	mov  %i1, %o0
    37cc:	7f ff f9 99 	call  1e30 <_section0+0xbf0>
    37d0:	92 07 bf e0 	add  %fp, -32, %o1
    37d4:	80 a2 20 00 	cmp  %o0, 0
    37d8:	12 bf fd 73 	bne  2da4 <_section0+0x1b64>
    37dc:	a4 10 00 1c 	mov  %i4, %l2
    37e0:	10 bf ff 75 	b  35b4 <_section0+0x2374>
    37e4:	c2 07 b9 08 	ld  [ %fp + -1784 ], %g1
    37e8:	80 88 62 00 	btst  0x200, %g1
    37ec:	32 80 00 79 	bne,a   39d0 <_section0+0x2790>
    37f0:	90 10 3f ff 	mov  -1, %o0
    37f4:	40 00 1c 9d 	call  aa68 <_section0+0x9828>
    37f8:	90 06 60 58 	add  %i1, 0x58, %o0
    37fc:	10 80 00 75 	b  39d0 <_section0+0x2790>
    3800:	90 10 3f ff 	mov  -1, %o0
    3804:	10 bf fe d8 	b  3364 <_section0+0x2124>
    3808:	d0 07 b9 08 	ld  [ %fp + -1784 ], %o0
    380c:	90 10 00 19 	mov  %i1, %o0
    3810:	7f ff f9 88 	call  1e30 <_section0+0xbf0>
    3814:	92 07 bf e0 	add  %fp, -32, %o1
    3818:	80 a2 20 00 	cmp  %o0, 0
    381c:	12 bf fd 62 	bne  2da4 <_section0+0x1b64>
    3820:	a4 10 00 1c 	mov  %i4, %l2
    3824:	10 bf ff 78 	b  3604 <_section0+0x23c4>
    3828:	c2 07 b9 08 	ld  [ %fp + -1784 ], %g1
    382c:	c2 16 60 0c 	lduh  [ %i1 + 0xc ], %g1
    3830:	82 10 60 40 	or  %g1, 0x40, %g1
    3834:	10 bf fd 5c 	b  2da4 <_section0+0x1b64>
    3838:	c2 36 60 0c 	sth  %g1, [ %i1 + 0xc ]
    383c:	90 10 00 19 	mov  %i1, %o0
    3840:	7f ff f9 7c 	call  1e30 <_section0+0xbf0>
    3844:	92 07 bf e0 	add  %fp, -32, %o1
    3848:	80 a2 20 00 	cmp  %o0, 0
    384c:	12 bf fd 56 	bne  2da4 <_section0+0x1b64>
    3850:	a4 10 00 1c 	mov  %i4, %l2
    3854:	10 bf ff be 	b  374c <_section0+0x250c>
    3858:	c2 07 b9 04 	ld  [ %fp + -1788 ], %g1
    385c:	d0 07 a0 44 	ld  [ %fp + 0x44 ], %o0
    3860:	92 10 20 00 	clr  %o1
    3864:	94 07 b8 f8 	add  %fp, -1800, %o2
    3868:	96 10 20 00 	clr  %o3
    386c:	40 00 00 85 	call  3a80 <_section0+0x2840>
    3870:	98 10 00 17 	mov  %l7, %o4
    3874:	80 a2 3f ff 	cmp  %o0, -1
    3878:	02 bf ff ed 	be  382c <_section0+0x25ec>
    387c:	a8 10 00 08 	mov  %o0, %l4
    3880:	10 bf fb f9 	b  2864 <_section0+0x1624>
    3884:	e6 27 b8 f8 	st  %l3, [ %fp + -1800 ]
    3888:	82 10 20 30 	mov  0x30, %g1
    388c:	c2 2d 00 00 	stb  %g1, [ %l4 ]
    3890:	a8 05 20 01 	inc  %l4
    3894:	82 04 20 30 	add  %l0, 0x30, %g1
    3898:	c2 2d 00 00 	stb  %g1, [ %l4 ]
    389c:	10 bf fe d8 	b  33fc <_section0+0x21bc>
    38a0:	a8 05 20 01 	inc  %l4
    38a4:	c2 2a 80 00 	stb  %g1, [ %o2 ]
    38a8:	d0 1f b8 c8 	ldd  [ %fp + -1848 ], %o0
    38ac:	19 20 00 00 	sethi  %hi(0x80000000), %o4
    38b0:	9a 10 20 00 	clr  %o5
    38b4:	90 1b 00 08 	xor  %o4, %o0, %o0
    38b8:	92 1b 40 09 	xor  %o5, %o1, %o1
    38bc:	10 bf fe 6a 	b  3264 <_section0+0x2024>
    38c0:	d0 3f b8 c8 	std  %o0, [ %fp + -1848 ]
    38c4:	c2 07 bf e8 	ld  [ %fp + -24 ], %g1
    38c8:	80 a0 60 00 	cmp  %g1, 0
    38cc:	12 80 00 04 	bne  38dc <_section0+0x269c>
    38d0:	90 10 00 19 	mov  %i1, %o0
    38d4:	10 bf fd 34 	b  2da4 <_section0+0x1b64>
    38d8:	c0 27 bf e4 	clr  [ %fp + -28 ]
    38dc:	7f ff f9 55 	call  1e30 <_section0+0xbf0>
    38e0:	92 07 bf e0 	add  %fp, -32, %o1
    38e4:	80 a2 20 00 	cmp  %o0, 0
    38e8:	22 bf fd 2f 	be,a   2da4 <_section0+0x1b64>
    38ec:	c0 27 bf e4 	clr  [ %fp + -28 ]
    38f0:	10 bf fd 2e 	b  2da8 <_section0+0x1b68>
    38f4:	da 07 b8 d4 	ld  [ %fp + -1836 ], %o5
    38f8:	c2 4c c0 00 	ldsb  [ %l3 ], %g1
    38fc:	80 a0 60 30 	cmp  %g1, 0x30
    3900:	02 80 00 05 	be  3914 <_section0+0x26d4>
    3904:	19 23 80 29 	sethi  %hi(0x8e00a400), %o4
    3908:	c2 05 00 00 	ld  [ %l4 ], %g1
    390c:	10 bf fe 70 	b  32cc <_section0+0x208c>
    3910:	a0 04 00 01 	add  %l0, %g1, %l0
    3914:	d0 1f b8 c8 	ldd  [ %fp + -1848 ], %o0
    3918:	40 00 18 96 	call  9b70 <_section0+0x8930>
    391c:	d4 1b 23 78 	ldd  [ %o4 + 0x378 ], %o2
    3920:	80 a2 20 00 	cmp  %o0, 0
    3924:	22 bf ff fa 	be,a   390c <_section0+0x26cc>
    3928:	c2 05 00 00 	ld  [ %l4 ], %g1
    392c:	82 10 20 01 	mov  1, %g1
    3930:	82 20 40 11 	sub  %g1, %l1, %g1
    3934:	c2 25 00 00 	st  %g1, [ %l4 ]
    3938:	10 bf fe 65 	b  32cc <_section0+0x208c>
    393c:	a0 04 00 01 	add  %l0, %g1, %l0
    3940:	80 a2 20 00 	cmp  %o0, 0
    3944:	04 bf fe b6 	ble  341c <_section0+0x21dc>
    3948:	a8 00 60 02 	add  %g1, 2, %l4
    394c:	10 bf fe b4 	b  341c <_section0+0x21dc>
    3950:	a8 03 60 01 	add  %o5, 1, %l4
    3954:	04 80 00 0e 	ble  398c <_section0+0x274c>
    3958:	80 a5 a0 00 	cmp  %l6, 0
    395c:	12 80 00 05 	bne  3970 <_section0+0x2730>
    3960:	a8 10 00 08 	mov  %o0, %l4
    3964:	80 8f 60 01 	btst  1, %i5
    3968:	02 bf fe ae 	be  3420 <_section0+0x21e0>
    396c:	c2 4f b9 0f 	ldsb  [ %fp + -1777 ], %g1
    3970:	82 05 80 14 	add  %l6, %l4, %g1
    3974:	10 bf fe aa 	b  341c <_section0+0x21dc>
    3978:	a8 00 60 01 	add  %g1, 1, %l4
    397c:	82 10 20 2d 	mov  0x2d, %g1
    3980:	c2 2f bf f1 	stb  %g1, [ %fp + -15 ]
    3984:	10 bf fe 83 	b  3390 <_section0+0x2150>
    3988:	a0 20 00 08 	neg  %o0, %l0
    398c:	12 bf fe a4 	bne  341c <_section0+0x21dc>
    3990:	a8 05 a0 02 	add  %l6, 2, %l4
    3994:	80 8f 60 01 	btst  1, %i5
    3998:	02 bf fe a1 	be  341c <_section0+0x21dc>
    399c:	a8 10 20 01 	mov  1, %l4
    39a0:	10 bf fe 9f 	b  341c <_section0+0x21dc>
    39a4:	a8 05 a0 02 	add  %l6, 2, %l4
    39a8:	c2 16 60 0c 	lduh  [ %i1 + 0xc ], %g1
    39ac:	82 10 60 40 	or  %g1, 0x40, %g1
    39b0:	10 bf fd 03 	b  2dbc <_section0+0x1b7c>
    39b4:	c2 36 60 0c 	sth  %g1, [ %i1 + 0xc ]
    39b8:	ec 06 c0 00 	ld  [ %i3 ], %l6
    39bc:	80 a5 a0 00 	cmp  %l6, 0
    39c0:	16 bf f9 85 	bge  1fd4 <_section0+0xd94>
    39c4:	b6 06 e0 04 	add  %i3, 4, %i3
    39c8:	10 bf f9 83 	b  1fd4 <_section0+0xd94>
    39cc:	ac 10 3f ff 	mov  -1, %l6
    39d0:	81 c7 e0 08 	ret 
    39d4:	91 e8 00 08 	restore  %g0, %o0, %o0
    39d8:	9a 10 00 08 	mov  %o0, %o5
    39dc:	98 10 00 09 	mov  %o1, %o4
    39e0:	96 10 00 0a 	mov  %o2, %o3
    39e4:	03 23 c0 01 	sethi  %hi(0x8f000400), %g1
    39e8:	d0 00 61 60 	ld  [ %g1 + 0x160 ], %o0	! 8f000560 <LEON_REG+0xf000560>
    39ec:	92 10 00 0d 	mov  %o5, %o1
    39f0:	94 10 00 0c 	mov  %o4, %o2
    39f4:	82 13 c0 00 	mov  %o7, %g1
    39f8:	7f ff f9 1e 	call  1e70 <_section0+0xc30>
    39fc:	9e 10 40 00 	mov  %g1, %o7
    3a00:	01 00 00 00 	nop 
    3a04:	9d e3 bf 88 	save  %sp, -120, %sp
    3a08:	92 07 bf e8 	add  %fp, -24, %o1
    3a0c:	94 10 20 00 	clr  %o2
    3a10:	90 10 00 18 	mov  %i0, %o0
    3a14:	80 a6 60 00 	cmp  %i1, 0
    3a18:	02 80 00 06 	be  3a30 <_section0+0x27f0>
    3a1c:	96 10 00 1b 	mov  %i3, %o3
    3a20:	92 10 00 19 	mov  %i1, %o1
    3a24:	94 10 00 1a 	mov  %i2, %o2
    3a28:	90 10 00 18 	mov  %i0, %o0
    3a2c:	96 10 00 1b 	mov  %i3, %o3
    3a30:	40 00 00 63 	call  3bbc <_section0+0x297c>
    3a34:	01 00 00 00 	nop 
    3a38:	80 a2 3f ff 	cmp  %o0, -1
    3a3c:	12 80 00 04 	bne  3a4c <_section0+0x280c>
    3a40:	82 10 20 8a 	mov  0x8a, %g1
    3a44:	c0 26 c0 00 	clr  [ %i3 ]
    3a48:	c2 26 00 00 	st  %g1, [ %i0 ]
    3a4c:	81 c7 e0 08 	ret 
    3a50:	91 e8 00 08 	restore  %g0, %o0, %o0
    3a54:	9a 10 00 08 	mov  %o0, %o5
    3a58:	98 10 00 09 	mov  %o1, %o4
    3a5c:	96 10 00 0a 	mov  %o2, %o3
    3a60:	03 23 c0 01 	sethi  %hi(0x8f000400), %g1
    3a64:	d0 00 61 60 	ld  [ %g1 + 0x160 ], %o0	! 8f000560 <LEON_REG+0xf000560>
    3a68:	92 10 00 0d 	mov  %o5, %o1
    3a6c:	94 10 00 0c 	mov  %o4, %o2
    3a70:	82 13 c0 00 	mov  %o7, %g1
    3a74:	7f ff ff e4 	call  3a04 <_section0+0x27c4>
    3a78:	9e 10 40 00 	mov  %g1, %o7
    3a7c:	01 00 00 00 	nop 
    3a80:	9d e3 bf 88 	save  %sp, -120, %sp
    3a84:	a0 10 00 19 	mov  %i1, %l0
    3a88:	80 a6 60 00 	cmp  %i1, 0
    3a8c:	02 80 00 2f 	be  3b48 <_section0+0x2908>
    3a90:	ac 10 00 18 	mov  %i0, %l6
    3a94:	b0 10 20 00 	clr  %i0
    3a98:	80 a6 00 1b 	cmp  %i0, %i3
    3a9c:	1a 80 00 3a 	bcc  3b84 <_section0+0x2944>
    3aa0:	e2 06 80 00 	ld  [ %i2 ], %l1
    3aa4:	aa 07 bf e8 	add  %fp, -24, %l5
    3aa8:	a6 07 bf f8 	add  %fp, -8, %l3
    3aac:	e8 07 00 00 	ld  [ %i4 ], %l4
    3ab0:	e4 07 20 04 	ld  [ %i4 + 4 ], %l2
    3ab4:	90 10 00 16 	mov  %l6, %o0
    3ab8:	92 10 00 15 	mov  %l5, %o1
    3abc:	d4 04 40 00 	ld  [ %l1 ], %o2
    3ac0:	7f ff ff d1 	call  3a04 <_section0+0x27c4>
    3ac4:	96 10 00 1c 	mov  %i4, %o3
    3ac8:	80 a2 3f ff 	cmp  %o0, -1
    3acc:	02 80 00 21 	be  3b50 <_section0+0x2910>
    3ad0:	82 26 c0 08 	sub  %i3, %o0, %g1
    3ad4:	80 a0 40 18 	cmp  %g1, %i0
    3ad8:	9a 60 3f ff 	subx  %g0, -1, %o5
    3adc:	80 a2 00 1b 	cmp  %o0, %i3
    3ae0:	82 40 20 00 	addx  %g0, 0, %g1
    3ae4:	80 8b 40 01 	btst  %o5, %g1
    3ae8:	02 80 00 1f 	be  3b64 <_section0+0x2924>
    3aec:	80 a6 60 00 	cmp  %i1, 0
    3af0:	02 80 00 0e 	be  3b28 <_section0+0x28e8>
    3af4:	b0 06 00 08 	add  %i0, %o0, %i0
    3af8:	10 80 00 06 	b  3b10 <_section0+0x28d0>
    3afc:	98 10 20 00 	clr  %o4
    3b00:	da 08 7f f0 	ldub  [ %g1 + -16 ], %o5
    3b04:	da 2c 00 00 	stb  %o5, [ %l0 ]
    3b08:	98 03 20 01 	inc  %o4
    3b0c:	a0 04 20 01 	inc  %l0
    3b10:	80 a3 00 08 	cmp  %o4, %o0
    3b14:	06 bf ff fb 	bl  3b00 <_section0+0x28c0>
    3b18:	82 04 c0 0c 	add  %l3, %o4, %g1
    3b1c:	c2 06 80 00 	ld  [ %i2 ], %g1
    3b20:	82 00 60 04 	add  %g1, 4, %g1
    3b24:	c2 26 80 00 	st  %g1, [ %i2 ]
    3b28:	c2 04 40 00 	ld  [ %l1 ], %g1
    3b2c:	80 a0 60 00 	cmp  %g1, 0
    3b30:	02 80 00 10 	be  3b70 <_section0+0x2930>
    3b34:	a2 04 60 04 	add  %l1, 4, %l1
    3b38:	80 a6 00 1b 	cmp  %i0, %i3
    3b3c:	2a bf ff dd 	bcs,a   3ab0 <_section0+0x2870>
    3b40:	e8 07 00 00 	ld  [ %i4 ], %l4
    3b44:	30 80 00 10 	b,a   3b84 <_section0+0x2944>
    3b48:	10 bf ff d3 	b  3a94 <_section0+0x2854>
    3b4c:	b6 10 3f ff 	mov  -1, %i3
    3b50:	82 10 20 8a 	mov  0x8a, %g1
    3b54:	c2 25 80 00 	st  %g1, [ %l6 ]
    3b58:	c0 27 00 00 	clr  [ %i4 ]
    3b5c:	10 80 00 0a 	b  3b84 <_section0+0x2944>
    3b60:	b0 10 3f ff 	mov  -1, %i0
    3b64:	e4 27 20 04 	st  %l2, [ %i4 + 4 ]
    3b68:	10 80 00 07 	b  3b84 <_section0+0x2944>
    3b6c:	e8 27 00 00 	st  %l4, [ %i4 ]
    3b70:	80 a6 60 00 	cmp  %i1, 0
    3b74:	32 80 00 02 	bne,a   3b7c <_section0+0x293c>
    3b78:	c0 26 80 00 	clr  [ %i2 ]
    3b7c:	c0 27 00 00 	clr  [ %i4 ]
    3b80:	b0 06 3f ff 	add  %i0, -1, %i0
    3b84:	81 c7 e0 08 	ret 
    3b88:	81 e8 00 00 	restore 
    3b8c:	9d e3 bf 98 	save  %sp, -104, %sp
    3b90:	ba 10 00 18 	mov  %i0, %i5
    3b94:	9e 10 00 19 	mov  %i1, %o7
    3b98:	9a 10 00 1a 	mov  %i2, %o5
    3b9c:	b8 10 00 1b 	mov  %i3, %i4
    3ba0:	03 23 c0 01 	sethi  %hi(0x8f000400), %g1
    3ba4:	f0 00 61 60 	ld  [ %g1 + 0x160 ], %i0	! 8f000560 <LEON_REG+0xf000560>
    3ba8:	b2 10 00 1d 	mov  %i5, %i1
    3bac:	b4 10 00 0f 	mov  %o7, %i2
    3bb0:	7f ff ff b4 	call  3a80 <_section0+0x2840>
    3bb4:	97 e8 00 0d 	restore  %g0, %o5, %o3
    3bb8:	01 00 00 00 	nop 
    3bbc:	9d e3 bf 98 	save  %sp, -104, %sp
    3bc0:	31 23 c0 01 	sethi  %hi(0x8f000400), %i0
    3bc4:	40 00 12 99 	call  8628 <_section0+0x73e8>
    3bc8:	90 16 21 e0 	or  %i0, 0x1e0, %o0	! 8f0005e0 <LEON_REG+0xf0005e0>
    3bcc:	80 a2 20 01 	cmp  %o0, 1
    3bd0:	18 80 00 08 	bgu  3bf0 <_section0+0x29b0>
    3bd4:	13 23 80 29 	sethi  %hi(0x8e00a400), %o1
    3bd8:	80 a6 60 00 	cmp  %i1, 0
    3bdc:	02 80 01 16 	be  4034 <_section0+0x2df4>
    3be0:	b0 10 20 00 	clr  %i0
    3be4:	f4 2e 40 00 	stb  %i2, [ %i1 ]
    3be8:	10 80 01 13 	b  4034 <_section0+0x2df4>
    3bec:	b0 10 20 01 	mov  1, %i0
    3bf0:	92 12 63 80 	or  %o1, 0x380, %o1
    3bf4:	40 00 12 5e 	call  856c <_section0+0x732c>
    3bf8:	90 16 21 e0 	or  %i0, 0x1e0, %o0
    3bfc:	80 a2 20 00 	cmp  %o0, 0
    3c00:	12 80 00 3e 	bne  3cf8 <_section0+0x2ab8>
    3c04:	80 a6 60 00 	cmp  %i1, 0
    3c08:	02 80 01 0b 	be  4034 <_section0+0x2df4>
    3c0c:	b0 10 20 00 	clr  %i0
    3c10:	80 a6 a0 7f 	cmp  %i2, 0x7f
    3c14:	24 bf ff f5 	ble,a   3be8 <_section0+0x29a8>
    3c18:	f4 2e 40 00 	stb  %i2, [ %i1 ]
    3c1c:	82 06 bf 80 	add  %i2, -128, %g1
    3c20:	80 a0 67 7f 	cmp  %g1, 0x77f
    3c24:	08 80 00 c0 	bleu  3f24 <_section0+0x2ce4>
    3c28:	03 00 00 3d 	sethi  %hi(0xf400), %g1
    3c2c:	9a 06 b8 00 	add  %i2, -2048, %o5
    3c30:	82 10 63 ff 	or  %g1, 0x3ff, %g1
    3c34:	80 a3 40 01 	cmp  %o5, %g1
    3c38:	08 80 00 56 	bleu  3d90 <_section0+0x2b50>
    3c3c:	03 3f ff ca 	sethi  %hi(0xffff2800), %g1
    3c40:	1b 3f ff c0 	sethi  %hi(0xffff0000), %o5
    3c44:	03 00 07 bf 	sethi  %hi(0x1efc00), %g1
    3c48:	9a 06 80 0d 	add  %i2, %o5, %o5
    3c4c:	82 10 63 ff 	or  %g1, 0x3ff, %g1
    3c50:	80 a3 40 01 	cmp  %o5, %g1
    3c54:	08 80 00 bd 	bleu  3f48 <_section0+0x2d08>
    3c58:	1b 3f f8 00 	sethi  %hi(0xffe00000), %o5
    3c5c:	03 00 f7 ff 	sethi  %hi(0x3dffc00), %g1
    3c60:	9a 06 80 0d 	add  %i2, %o5, %o5
    3c64:	82 10 63 ff 	or  %g1, 0x3ff, %g1
    3c68:	80 a3 40 01 	cmp  %o5, %g1
    3c6c:	08 80 00 ca 	bleu  3f94 <_section0+0x2d54>
    3c70:	03 00 ff ff 	sethi  %hi(0x3fffc00), %g1
    3c74:	82 10 63 ff 	or  %g1, 0x3ff, %g1	! 3ffffff <RAM_END+0x1bfffff>
    3c78:	80 a6 80 01 	cmp  %i2, %g1
    3c7c:	04 80 00 ee 	ble  4034 <_section0+0x2df4>
    3c80:	b0 10 3f ff 	mov  -1, %i0
    3c84:	83 36 a0 1e 	srl  %i2, 0x1e, %g1
    3c88:	82 08 60 01 	and  %g1, 1, %g1
    3c8c:	82 10 7f fc 	or  %g1, -4, %g1
    3c90:	9b 36 a0 18 	srl  %i2, 0x18, %o5
    3c94:	c2 2e 40 00 	stb  %g1, [ %i1 ]
    3c98:	9a 0b 60 3f 	and  %o5, 0x3f, %o5
    3c9c:	b2 06 60 01 	inc  %i1
    3ca0:	9a 13 7f 80 	or  %o5, -128, %o5
    3ca4:	83 36 a0 12 	srl  %i2, 0x12, %g1
    3ca8:	da 2e 40 00 	stb  %o5, [ %i1 ]
    3cac:	82 08 60 3f 	and  %g1, 0x3f, %g1
    3cb0:	b2 06 60 01 	inc  %i1
    3cb4:	82 10 7f 80 	or  %g1, -128, %g1
    3cb8:	9b 36 a0 0c 	srl  %i2, 0xc, %o5
    3cbc:	c2 2e 40 00 	stb  %g1, [ %i1 ]
    3cc0:	9a 0b 60 3f 	and  %o5, 0x3f, %o5
    3cc4:	b2 06 60 01 	inc  %i1
    3cc8:	9a 13 7f 80 	or  %o5, -128, %o5
    3ccc:	98 0e af c0 	and  %i2, 0xfc0, %o4
    3cd0:	da 2e 40 00 	stb  %o5, [ %i1 ]
    3cd4:	99 3b 20 06 	sra  %o4, 6, %o4
    3cd8:	82 0e a0 3f 	and  %i2, 0x3f, %g1
    3cdc:	b2 06 60 01 	inc  %i1
    3ce0:	98 13 3f 80 	or  %o4, -128, %o4
    3ce4:	82 10 7f 80 	or  %g1, -128, %g1
    3ce8:	c2 2e 60 01 	stb  %g1, [ %i1 + 1 ]
    3cec:	d8 2e 40 00 	stb  %o4, [ %i1 ]
    3cf0:	10 80 00 d1 	b  4034 <_section0+0x2df4>
    3cf4:	b0 10 20 06 	mov  6, %i0
    3cf8:	13 23 80 29 	sethi  %hi(0x8e00a400), %o1
    3cfc:	92 12 63 88 	or  %o1, 0x388, %o1	! 8e00a788 <LEON_REG+0xe00a788>
    3d00:	40 00 12 1b 	call  856c <_section0+0x732c>
    3d04:	90 16 21 e0 	or  %i0, 0x1e0, %o0
    3d08:	80 a2 20 00 	cmp  %o0, 0
    3d0c:	12 80 00 36 	bne  3de4 <_section0+0x2ba4>
    3d10:	97 3e a0 08 	sra  %i2, 8, %o3
    3d14:	80 a6 60 00 	cmp  %i1, 0
    3d18:	02 80 00 c7 	be  4034 <_section0+0x2df4>
    3d1c:	b0 10 20 00 	clr  %i0
    3d20:	80 8a e0 ff 	btst  0xff, %o3
    3d24:	02 bf ff ae 	be  3bdc <_section0+0x299c>
    3d28:	80 a6 60 00 	cmp  %i1, 0
    3d2c:	82 02 e0 7f 	add  %o3, 0x7f, %g1
    3d30:	82 08 60 ff 	and  %g1, 0xff, %g1
    3d34:	80 a0 60 1f 	cmp  %g1, 0x1f
    3d38:	9a 02 e0 20 	add  %o3, 0x20, %o5
    3d3c:	98 60 20 00 	subx  %g0, 0, %o4
    3d40:	9a 0b 60 ff 	and  %o5, 0xff, %o5
    3d44:	80 a3 60 10 	cmp  %o5, 0x10
    3d48:	82 60 20 00 	subx  %g0, 0, %g1
    3d4c:	82 10 40 0c 	or  %g1, %o4, %g1
    3d50:	80 88 60 01 	btst  1, %g1
    3d54:	02 80 00 0d 	be  3d88 <_section0+0x2b48>
    3d58:	82 06 bf c0 	add  %i2, -64, %g1
    3d5c:	82 08 60 ff 	and  %g1, 0xff, %g1
    3d60:	80 a0 60 3f 	cmp  %g1, 0x3f
    3d64:	9a 06 bf 80 	add  %i2, -128, %o5
    3d68:	98 60 20 00 	subx  %g0, 0, %o4
    3d6c:	9a 0b 60 ff 	and  %o5, 0xff, %o5
    3d70:	80 a3 60 7d 	cmp  %o5, 0x7d
    3d74:	82 60 20 00 	subx  %g0, 0, %g1
    3d78:	82 10 40 0c 	or  %g1, %o4, %g1
    3d7c:	80 88 60 01 	btst  1, %g1
    3d80:	32 80 00 16 	bne,a   3dd8 <_section0+0x2b98>
    3d84:	f4 2e 60 01 	stb  %i2, [ %i1 + 1 ]
    3d88:	10 80 00 ab 	b  4034 <_section0+0x2df4>
    3d8c:	b0 10 3f ff 	mov  -1, %i0
    3d90:	82 06 80 01 	add  %i2, %g1, %g1
    3d94:	80 a0 67 ff 	cmp  %g1, 0x7ff
    3d98:	08 80 00 a7 	bleu  4034 <_section0+0x2df4>
    3d9c:	b0 10 3f ff 	mov  -1, %i0
    3da0:	83 36 a0 0c 	srl  %i2, 0xc, %g1
    3da4:	82 08 60 0f 	and  %g1, 0xf, %g1
    3da8:	82 10 7f e0 	or  %g1, -32, %g1
    3dac:	c2 2e 40 00 	stb  %g1, [ %i1 ]
    3db0:	9a 0e af c0 	and  %i2, 0xfc0, %o5
    3db4:	9b 3b 60 06 	sra  %o5, 6, %o5
    3db8:	82 0e a0 3f 	and  %i2, 0x3f, %g1
    3dbc:	b2 06 60 01 	inc  %i1
    3dc0:	9a 13 7f 80 	or  %o5, -128, %o5
    3dc4:	82 10 7f 80 	or  %g1, -128, %g1
    3dc8:	c2 2e 60 01 	stb  %g1, [ %i1 + 1 ]
    3dcc:	da 2e 40 00 	stb  %o5, [ %i1 ]
    3dd0:	10 80 00 99 	b  4034 <_section0+0x2df4>
    3dd4:	b0 10 20 03 	mov  3, %i0
    3dd8:	d6 2e 40 00 	stb  %o3, [ %i1 ]
    3ddc:	10 80 00 96 	b  4034 <_section0+0x2df4>
    3de0:	b0 10 20 02 	mov  2, %i0
    3de4:	13 23 80 29 	sethi  %hi(0x8e00a400), %o1
    3de8:	92 12 63 90 	or  %o1, 0x390, %o1	! 8e00a790 <LEON_REG+0xe00a790>
    3dec:	40 00 11 e0 	call  856c <_section0+0x732c>
    3df0:	90 16 21 e0 	or  %i0, 0x1e0, %o0
    3df4:	80 a2 20 00 	cmp  %o0, 0
    3df8:	12 80 00 20 	bne  3e78 <_section0+0x2c38>
    3dfc:	97 3e a0 08 	sra  %i2, 8, %o3
    3e00:	80 a6 60 00 	cmp  %i1, 0
    3e04:	98 10 00 1a 	mov  %i2, %o4
    3e08:	02 80 00 8b 	be  4034 <_section0+0x2df4>
    3e0c:	b0 10 20 00 	clr  %i0
    3e10:	82 0a e0 ff 	and  %o3, 0xff, %g1
    3e14:	80 a0 60 00 	cmp  %g1, 0
    3e18:	02 bf ff 71 	be  3bdc <_section0+0x299c>
    3e1c:	80 a6 60 00 	cmp  %i1, 0
    3e20:	80 a0 60 a0 	cmp  %g1, 0xa0
    3e24:	18 80 00 03 	bgu  3e30 <_section0+0x2bf0>
    3e28:	94 10 20 01 	mov  1, %o2
    3e2c:	94 10 20 00 	clr  %o2
    3e30:	82 18 60 ff 	xor  %g1, 0xff, %g1
    3e34:	80 a0 00 01 	cmp  %g0, %g1
    3e38:	9a 40 20 00 	addx  %g0, 0, %o5
    3e3c:	80 8a 80 0d 	btst  %o2, %o5
    3e40:	02 bf ff d2 	be  3d88 <_section0+0x2b48>
    3e44:	82 0b 20 ff 	and  %o4, 0xff, %g1
    3e48:	80 a0 60 a0 	cmp  %g1, 0xa0
    3e4c:	18 80 00 03 	bgu  3e58 <_section0+0x2c18>
    3e50:	98 10 20 01 	mov  1, %o4
    3e54:	98 10 20 00 	clr  %o4
    3e58:	82 18 60 ff 	xor  %g1, 0xff, %g1
    3e5c:	80 a0 00 01 	cmp  %g0, %g1
    3e60:	9a 40 20 00 	addx  %g0, 0, %o5
    3e64:	80 8b 00 0d 	btst  %o4, %o5
    3e68:	22 80 00 73 	be,a   4034 <_section0+0x2df4>
    3e6c:	b0 10 3f ff 	mov  -1, %i0
    3e70:	10 bf ff da 	b  3dd8 <_section0+0x2b98>
    3e74:	f4 2e 60 01 	stb  %i2, [ %i1 + 1 ]
    3e78:	13 23 80 29 	sethi  %hi(0x8e00a400), %o1
    3e7c:	90 16 21 e0 	or  %i0, 0x1e0, %o0
    3e80:	40 00 11 bb 	call  856c <_section0+0x732c>
    3e84:	92 12 63 98 	or  %o1, 0x398, %o1
    3e88:	80 a2 20 00 	cmp  %o0, 0
    3e8c:	12 bf ff 54 	bne  3bdc <_section0+0x299c>
    3e90:	80 a6 60 00 	cmp  %i1, 0
    3e94:	99 3e a0 08 	sra  %i2, 8, %o4
    3e98:	9a 10 20 00 	clr  %o5
    3e9c:	02 80 00 66 	be  4034 <_section0+0x2df4>
    3ea0:	b0 10 20 01 	mov  1, %i0
    3ea4:	80 8b 20 ff 	btst  0xff, %o4
    3ea8:	22 80 00 53 	be,a   3ff4 <_section0+0x2db4>
    3eac:	c2 06 c0 00 	ld  [ %i3 ], %g1
    3eb0:	82 03 3f df 	add  %o4, -33, %g1
    3eb4:	82 08 60 ff 	and  %g1, 0xff, %g1
    3eb8:	80 a0 60 5d 	cmp  %g1, 0x5d
    3ebc:	18 bf ff b3 	bgu  3d88 <_section0+0x2b48>
    3ec0:	82 06 bf df 	add  %i2, -33, %g1
    3ec4:	82 08 60 ff 	and  %g1, 0xff, %g1
    3ec8:	80 a0 60 5d 	cmp  %g1, 0x5d
    3ecc:	18 80 00 5a 	bgu  4034 <_section0+0x2df4>
    3ed0:	b0 10 3f ff 	mov  -1, %i0
    3ed4:	c2 06 c0 00 	ld  [ %i3 ], %g1
    3ed8:	80 a0 60 00 	cmp  %g1, 0
    3edc:	32 80 00 0f 	bne,a   3f18 <_section0+0x2cd8>
    3ee0:	f4 2e 60 01 	stb  %i2, [ %i1 + 1 ]
    3ee4:	82 10 20 01 	mov  1, %g1
    3ee8:	c2 26 c0 00 	st  %g1, [ %i3 ]
    3eec:	9a 10 20 1b 	mov  0x1b, %o5
    3ef0:	da 2e 40 00 	stb  %o5, [ %i1 ]
    3ef4:	b2 06 60 01 	inc  %i1
    3ef8:	82 10 20 24 	mov  0x24, %g1
    3efc:	c2 2e 40 00 	stb  %g1, [ %i1 ]
    3f00:	b2 06 60 01 	inc  %i1
    3f04:	82 10 20 42 	mov  0x42, %g1
    3f08:	c2 2e 40 00 	stb  %g1, [ %i1 ]
    3f0c:	b2 06 60 01 	inc  %i1
    3f10:	9a 10 20 03 	mov  3, %o5
    3f14:	f4 2e 60 01 	stb  %i2, [ %i1 + 1 ]
    3f18:	d8 2e 40 00 	stb  %o4, [ %i1 ]
    3f1c:	10 80 00 46 	b  4034 <_section0+0x2df4>
    3f20:	b0 03 60 02 	add  %o5, 2, %i0
    3f24:	9a 0e a7 c0 	and  %i2, 0x7c0, %o5
    3f28:	9b 3b 60 06 	sra  %o5, 6, %o5
    3f2c:	82 0e a0 3f 	and  %i2, 0x3f, %g1
    3f30:	9a 13 7f c0 	or  %o5, -64, %o5
    3f34:	82 10 7f 80 	or  %g1, -128, %g1
    3f38:	c2 2e 60 01 	stb  %g1, [ %i1 + 1 ]
    3f3c:	da 2e 40 00 	stb  %o5, [ %i1 ]
    3f40:	10 80 00 3d 	b  4034 <_section0+0x2df4>
    3f44:	b0 10 20 02 	mov  2, %i0
    3f48:	83 36 a0 12 	srl  %i2, 0x12, %g1
    3f4c:	82 08 60 07 	and  %g1, 7, %g1
    3f50:	82 10 7f f0 	or  %g1, -16, %g1
    3f54:	9b 36 a0 0c 	srl  %i2, 0xc, %o5
    3f58:	c2 2e 40 00 	stb  %g1, [ %i1 ]
    3f5c:	9a 0b 60 3f 	and  %o5, 0x3f, %o5
    3f60:	b2 06 60 01 	inc  %i1
    3f64:	9a 13 7f 80 	or  %o5, -128, %o5
    3f68:	98 0e af c0 	and  %i2, 0xfc0, %o4
    3f6c:	da 2e 40 00 	stb  %o5, [ %i1 ]
    3f70:	99 3b 20 06 	sra  %o4, 6, %o4
    3f74:	82 0e a0 3f 	and  %i2, 0x3f, %g1
    3f78:	b2 06 60 01 	inc  %i1
    3f7c:	98 13 3f 80 	or  %o4, -128, %o4
    3f80:	82 10 7f 80 	or  %g1, -128, %g1
    3f84:	c2 2e 60 01 	stb  %g1, [ %i1 + 1 ]
    3f88:	d8 2e 40 00 	stb  %o4, [ %i1 ]
    3f8c:	10 80 00 2a 	b  4034 <_section0+0x2df4>
    3f90:	b0 10 20 04 	mov  4, %i0
    3f94:	83 36 a0 18 	srl  %i2, 0x18, %g1
    3f98:	82 08 60 03 	and  %g1, 3, %g1
    3f9c:	82 10 7f f8 	or  %g1, -8, %g1
    3fa0:	9b 36 a0 12 	srl  %i2, 0x12, %o5
    3fa4:	c2 2e 40 00 	stb  %g1, [ %i1 ]
    3fa8:	9a 0b 60 3f 	and  %o5, 0x3f, %o5
    3fac:	b2 06 60 01 	inc  %i1
    3fb0:	9a 13 7f 80 	or  %o5, -128, %o5
    3fb4:	83 36 a0 0c 	srl  %i2, 0xc, %g1
    3fb8:	da 2e 40 00 	stb  %o5, [ %i1 ]
    3fbc:	82 08 60 3f 	and  %g1, 0x3f, %g1
    3fc0:	b2 06 60 01 	inc  %i1
    3fc4:	82 10 7f 80 	or  %g1, -128, %g1
    3fc8:	c2 2e 40 00 	stb  %g1, [ %i1 ]
    3fcc:	9a 0e af c0 	and  %i2, 0xfc0, %o5
    3fd0:	9b 3b 60 06 	sra  %o5, 6, %o5
    3fd4:	82 0e a0 3f 	and  %i2, 0x3f, %g1
    3fd8:	b2 06 60 01 	inc  %i1
    3fdc:	9a 13 7f 80 	or  %o5, -128, %o5
    3fe0:	82 10 7f 80 	or  %g1, -128, %g1
    3fe4:	c2 2e 60 01 	stb  %g1, [ %i1 + 1 ]
    3fe8:	da 2e 40 00 	stb  %o5, [ %i1 ]
    3fec:	10 80 00 12 	b  4034 <_section0+0x2df4>
    3ff0:	b0 10 20 05 	mov  5, %i0
    3ff4:	80 a0 60 00 	cmp  %g1, 0
    3ff8:	22 80 00 0e 	be,a   4030 <_section0+0x2df0>
    3ffc:	f4 2e 40 00 	stb  %i2, [ %i1 ]
    4000:	c0 26 c0 00 	clr  [ %i3 ]
    4004:	82 10 20 1b 	mov  0x1b, %g1
    4008:	c2 2e 40 00 	stb  %g1, [ %i1 ]
    400c:	b2 06 60 01 	inc  %i1
    4010:	82 10 20 28 	mov  0x28, %g1
    4014:	c2 2e 40 00 	stb  %g1, [ %i1 ]
    4018:	b2 06 60 01 	inc  %i1
    401c:	82 10 20 42 	mov  0x42, %g1
    4020:	c2 2e 40 00 	stb  %g1, [ %i1 ]
    4024:	b2 06 60 01 	inc  %i1
    4028:	9a 10 20 03 	mov  3, %o5
    402c:	f4 2e 40 00 	stb  %i2, [ %i1 ]
    4030:	b0 03 60 01 	add  %o5, 1, %i0
    4034:	81 c7 e0 08 	ret 
    4038:	81 e8 00 00 	restore 
    403c:	9d e3 bf 98 	save  %sp, -104, %sp
    4040:	21 23 c0 01 	sethi  %hi(0x8f000400), %l0
    4044:	d0 04 21 60 	ld  [ %l0 + 0x160 ], %o0	! 8f000560 <LEON_REG+0xf000560>
    4048:	80 a2 20 00 	cmp  %o0, 0
    404c:	22 80 00 07 	be,a   4068 <_section0+0x2e28>
    4050:	c2 16 20 0c 	lduh  [ %i0 + 0xc ], %g1
    4054:	c2 02 20 38 	ld  [ %o0 + 0x38 ], %g1
    4058:	80 a0 60 00 	cmp  %g1, 0
    405c:	02 80 00 40 	be  415c <_section0+0x2f1c>
    4060:	01 00 00 00 	nop 
    4064:	c2 16 20 0c 	lduh  [ %i0 + 0xc ], %g1
    4068:	80 88 60 08 	btst  8, %g1
    406c:	12 80 00 2c 	bne  411c <_section0+0x2edc>
    4070:	98 10 00 01 	mov  %g1, %o4
    4074:	80 88 60 10 	btst  0x10, %g1
    4078:	02 80 00 3d 	be  416c <_section0+0x2f2c>
    407c:	9a 10 3f ff 	mov  -1, %o5
    4080:	80 88 60 04 	btst  4, %g1
    4084:	02 80 00 33 	be  4150 <_section0+0x2f10>
    4088:	82 13 20 08 	or  %o4, 8, %g1
    408c:	d2 06 20 30 	ld  [ %i0 + 0x30 ], %o1
    4090:	80 a2 60 00 	cmp  %o1, 0
    4094:	02 80 00 0b 	be  40c0 <_section0+0x2e80>
    4098:	82 0b 3f db 	and  %o4, -37, %g1
    409c:	82 06 20 40 	add  %i0, 0x40, %g1
    40a0:	80 a2 40 01 	cmp  %o1, %g1
    40a4:	22 80 00 06 	be,a   40bc <_section0+0x2e7c>
    40a8:	c0 26 20 30 	clr  [ %i0 + 0x30 ]
    40ac:	40 00 06 d8 	call  5c0c <_section0+0x49cc>
    40b0:	d0 04 21 60 	ld  [ %l0 + 0x160 ], %o0
    40b4:	d8 16 20 0c 	lduh  [ %i0 + 0xc ], %o4
    40b8:	c0 26 20 30 	clr  [ %i0 + 0x30 ]
    40bc:	82 0b 3f db 	and  %o4, -37, %g1
    40c0:	c2 36 20 0c 	sth  %g1, [ %i0 + 0xc ]
    40c4:	98 10 00 01 	mov  %g1, %o4
    40c8:	da 06 20 10 	ld  [ %i0 + 0x10 ], %o5
    40cc:	82 13 20 08 	or  %o4, 8, %g1
    40d0:	c0 26 20 04 	clr  [ %i0 + 4 ]
    40d4:	da 26 00 00 	st  %o5, [ %i0 ]
    40d8:	c2 36 20 0c 	sth  %g1, [ %i0 + 0xc ]
    40dc:	80 a3 60 00 	cmp  %o5, 0
    40e0:	32 80 00 14 	bne,a   4130 <_section0+0x2ef0>
    40e4:	c2 16 20 0c 	lduh  [ %i0 + 0xc ], %g1
    40e8:	40 00 09 18 	call  6548 <_section0+0x5308>
    40ec:	90 10 00 18 	mov  %i0, %o0
    40f0:	c2 16 20 0c 	lduh  [ %i0 + 0xc ], %g1
    40f4:	80 88 60 01 	btst  1, %g1
    40f8:	32 80 00 12 	bne,a   4140 <_section0+0x2f00>
    40fc:	c2 06 20 14 	ld  [ %i0 + 0x14 ], %g1
    4100:	80 88 60 02 	btst  2, %g1
    4104:	12 80 00 03 	bne  4110 <_section0+0x2ed0>
    4108:	82 10 20 00 	clr  %g1
    410c:	c2 06 20 14 	ld  [ %i0 + 0x14 ], %g1
    4110:	c2 26 20 08 	st  %g1, [ %i0 + 8 ]
    4114:	10 80 00 16 	b  416c <_section0+0x2f2c>
    4118:	9a 10 20 00 	clr  %o5
    411c:	da 06 20 10 	ld  [ %i0 + 0x10 ], %o5
    4120:	80 a3 60 00 	cmp  %o5, 0
    4124:	02 bf ff f1 	be  40e8 <_section0+0x2ea8>
    4128:	01 00 00 00 	nop 
    412c:	c2 16 20 0c 	lduh  [ %i0 + 0xc ], %g1
    4130:	80 88 60 01 	btst  1, %g1
    4134:	02 bf ff f4 	be  4104 <_section0+0x2ec4>
    4138:	80 88 60 02 	btst  2, %g1
    413c:	c2 06 20 14 	ld  [ %i0 + 0x14 ], %g1
    4140:	82 20 00 01 	neg  %g1
    4144:	c2 26 20 18 	st  %g1, [ %i0 + 0x18 ]
    4148:	10 bf ff f3 	b  4114 <_section0+0x2ed4>
    414c:	c0 26 20 08 	clr  [ %i0 + 8 ]
    4150:	da 06 20 10 	ld  [ %i0 + 0x10 ], %o5
    4154:	10 bf ff e2 	b  40dc <_section0+0x2e9c>
    4158:	c2 36 20 0c 	sth  %g1, [ %i0 + 0xc ]
    415c:	40 00 05 d2 	call  58a4 <_section0+0x4664>
    4160:	01 00 00 00 	nop 
    4164:	10 bf ff c1 	b  4068 <_section0+0x2e28>
    4168:	c2 16 20 0c 	lduh  [ %i0 + 0xc ], %g1
    416c:	81 c7 e0 08 	ret 
    4170:	91 e8 00 0d 	restore  %g0, %o5, %o0
    4174:	8e 00 3c 48 	add  %g0, -952, %g7
    4178:	8e 00 3c 48 	add  %g0, -952, %g7
    417c:	8e 00 3c 24 	add  %g0, -988, %g7
    4180:	8e 00 34 a0 	add  %g0, -2912, %g7
    4184:	8e 00 3c 28 	add  %g0, -984, %g7
    4188:	8e 00 34 a4 	add  %g0, -2908, %g7
    418c:	9d e3 bf 98 	save  %sp, -104, %sp
    4190:	ee 06 60 10 	ld  [ %i1 + 0x10 ], %l7
    4194:	c2 06 20 10 	ld  [ %i0 + 0x10 ], %g1
    4198:	b6 10 00 18 	mov  %i0, %i3
    419c:	80 a0 40 17 	cmp  %g1, %l7
    41a0:	06 80 00 77 	bl  437c <_section0+0x313c>
    41a4:	90 10 20 00 	clr  %o0
    41a8:	ae 05 ff ff 	add  %l7, -1, %l7
    41ac:	83 2d e0 02 	sll  %l7, 2, %g1
    41b0:	a6 06 60 14 	add  %i1, 0x14, %l3
    41b4:	ba 06 20 14 	add  %i0, 0x14, %i5
    41b8:	d2 00 40 13 	ld  [ %g1 + %l3 ], %o1
    41bc:	d0 00 40 1d 	ld  [ %g1 + %i5 ], %o0
    41c0:	92 02 60 01 	inc  %o1
    41c4:	b8 00 40 13 	add  %g1, %l3, %i4
    41c8:	40 00 12 c5 	call  8cdc <_section0+0x7a9c>
    41cc:	aa 00 40 1d 	add  %g1, %i5, %l5
    41d0:	b0 92 20 00 	orcc  %o0, 0, %i0
    41d4:	b4 10 00 13 	mov  %l3, %i2
    41d8:	12 80 00 39 	bne  42bc <_section0+0x307c>
    41dc:	a4 10 00 1d 	mov  %i5, %l2
    41e0:	92 10 00 19 	mov  %i1, %o1
    41e4:	40 00 0d ea 	call  798c <_section0+0x674c>
    41e8:	90 10 00 1b 	mov  %i3, %o0
    41ec:	80 a2 20 00 	cmp  %o0, 0
    41f0:	06 80 00 31 	bl  42b4 <_section0+0x3074>
    41f4:	03 00 00 3f 	sethi  %hi(0xfc00), %g1
    41f8:	b0 06 20 01 	inc  %i0
    41fc:	a6 10 00 1a 	mov  %i2, %l3
    4200:	92 10 63 ff 	or  %g1, 0x3ff, %o1
    4204:	a8 10 20 00 	clr  %l4
    4208:	a2 10 20 00 	clr  %l1
    420c:	a4 10 00 1d 	mov  %i5, %l2
    4210:	da 04 c0 00 	ld  [ %l3 ], %o5
    4214:	82 0b 40 09 	and  %o5, %o1, %g1
    4218:	a2 00 40 11 	add  %g1, %l1, %l1
    421c:	d8 04 80 00 	ld  [ %l2 ], %o4
    4220:	97 34 60 10 	srl  %l1, 0x10, %o3
    4224:	94 0c 40 09 	and  %l1, %o1, %o2
    4228:	82 0b 00 09 	and  %o4, %o1, %g1
    422c:	9b 33 60 10 	srl  %o5, 0x10, %o5
    4230:	90 03 40 0b 	add  %o5, %o3, %o0
    4234:	82 20 40 0a 	sub  %g1, %o2, %g1
    4238:	96 00 40 14 	add  %g1, %l4, %o3
    423c:	99 33 20 10 	srl  %o4, 0x10, %o4
    4240:	82 0a 00 09 	and  %o0, %o1, %g1
    4244:	a9 3a e0 10 	sra  %o3, 0x10, %l4
    4248:	98 23 00 01 	sub  %o4, %g1, %o4
    424c:	98 03 00 14 	add  %o4, %l4, %o4
    4250:	d8 34 80 00 	sth  %o4, [ %l2 ]
    4254:	d6 34 a0 02 	sth  %o3, [ %l2 + 2 ]
    4258:	a6 04 e0 04 	add  %l3, 4, %l3
    425c:	a4 04 a0 04 	add  %l2, 4, %l2
    4260:	80 a4 c0 1c 	cmp  %l3, %i4
    4264:	a3 32 20 10 	srl  %o0, 0x10, %l1
    4268:	08 bf ff ea 	bleu  4210 <_section0+0x2fd0>
    426c:	a9 3b 20 10 	sra  %o4, 0x10, %l4
    4270:	9b 2d e0 02 	sll  %l7, 2, %o5
    4274:	c2 03 40 1d 	ld  [ %o5 + %i5 ], %g1
    4278:	80 a0 60 00 	cmp  %g1, 0
    427c:	12 80 00 0e 	bne  42b4 <_section0+0x3074>
    4280:	aa 03 40 1d 	add  %o5, %i5, %l5
    4284:	aa 05 7f fc 	add  %l5, -4, %l5
    4288:	80 a5 40 1d 	cmp  %l5, %i5
    428c:	28 80 00 0a 	bleu,a   42b4 <_section0+0x3074>
    4290:	ee 26 e0 10 	st  %l7, [ %i3 + 0x10 ]
    4294:	c2 05 40 00 	ld  [ %l5 ], %g1
    4298:	80 a0 60 00 	cmp  %g1, 0
    429c:	12 80 00 05 	bne  42b0 <_section0+0x3070>
    42a0:	aa 05 7f fc 	add  %l5, -4, %l5
    42a4:	80 a5 40 1d 	cmp  %l5, %i5
    42a8:	10 bf ff f9 	b  428c <_section0+0x304c>
    42ac:	ae 05 ff ff 	add  %l7, -1, %l7
    42b0:	ee 26 e0 10 	st  %l7, [ %i3 + 0x10 ]
    42b4:	10 80 00 32 	b  437c <_section0+0x313c>
    42b8:	90 10 00 18 	mov  %i0, %o0
    42bc:	03 00 00 3f 	sethi  %hi(0xfc00), %g1
    42c0:	ac 10 63 ff 	or  %g1, 0x3ff, %l6	! ffff <_section2+0x37cf>
    42c4:	a8 10 20 00 	clr  %l4
    42c8:	a2 10 20 00 	clr  %l1
    42cc:	e0 04 c0 00 	ld  [ %l3 ], %l0
    42d0:	92 10 00 18 	mov  %i0, %o1
    42d4:	40 00 12 48 	call  8bf4 <_section0+0x79b4>
    42d8:	90 0c 00 16 	and  %l0, %l6, %o0
    42dc:	a2 02 00 11 	add  %o0, %l1, %l1
    42e0:	91 34 20 10 	srl  %l0, 0x10, %o0
    42e4:	40 00 12 44 	call  8bf4 <_section0+0x79b4>
    42e8:	92 10 00 18 	mov  %i0, %o1
    42ec:	da 04 80 00 	ld  [ %l2 ], %o5
    42f0:	96 0c 40 16 	and  %l1, %l6, %o3
    42f4:	82 0b 40 16 	and  %o5, %l6, %g1
    42f8:	99 34 60 10 	srl  %l1, 0x10, %o4
    42fc:	82 20 40 0b 	sub  %g1, %o3, %g1
    4300:	90 02 00 0c 	add  %o0, %o4, %o0
    4304:	96 00 40 14 	add  %g1, %l4, %o3
    4308:	9b 33 60 10 	srl  %o5, 0x10, %o5
    430c:	82 0a 00 16 	and  %o0, %l6, %g1
    4310:	a9 3a e0 10 	sra  %o3, 0x10, %l4
    4314:	9a 23 40 01 	sub  %o5, %g1, %o5
    4318:	98 03 40 14 	add  %o5, %l4, %o4
    431c:	d8 34 80 00 	sth  %o4, [ %l2 ]
    4320:	d6 34 a0 02 	sth  %o3, [ %l2 + 2 ]
    4324:	a6 04 e0 04 	add  %l3, 4, %l3
    4328:	a4 04 a0 04 	add  %l2, 4, %l2
    432c:	80 a4 c0 1c 	cmp  %l3, %i4
    4330:	a3 32 20 10 	srl  %o0, 0x10, %l1
    4334:	08 bf ff e6 	bleu  42cc <_section0+0x308c>
    4338:	a9 3b 20 10 	sra  %o4, 0x10, %l4
    433c:	c2 05 40 00 	ld  [ %l5 ], %g1
    4340:	80 a0 60 00 	cmp  %g1, 0
    4344:	32 bf ff a8 	bne,a   41e4 <_section0+0x2fa4>
    4348:	92 10 00 19 	mov  %i1, %o1
    434c:	aa 05 7f fc 	add  %l5, -4, %l5
    4350:	80 a5 40 1d 	cmp  %l5, %i5
    4354:	28 bf ff a3 	bleu,a   41e0 <_section0+0x2fa0>
    4358:	ee 26 e0 10 	st  %l7, [ %i3 + 0x10 ]
    435c:	c2 05 40 00 	ld  [ %l5 ], %g1
    4360:	80 a0 60 00 	cmp  %g1, 0
    4364:	32 bf ff 9f 	bne,a   41e0 <_section0+0x2fa0>
    4368:	ee 26 e0 10 	st  %l7, [ %i3 + 0x10 ]
    436c:	aa 05 7f fc 	add  %l5, -4, %l5
    4370:	80 a5 40 1d 	cmp  %l5, %i5
    4374:	10 bf ff f8 	b  4354 <_section0+0x3114>
    4378:	ae 05 ff ff 	add  %l7, -1, %l7
    437c:	81 c7 e0 08 	ret 
    4380:	91 e8 00 08 	restore  %g0, %o0, %o0
    4384:	9d e3 bf 58 	save  %sp, -168, %sp
    4388:	d2 06 20 40 	ld  [ %i0 + 0x40 ], %o1
    438c:	f0 27 a0 44 	st  %i0, [ %fp + 0x44 ]
    4390:	f8 27 a0 54 	st  %i4, [ %fp + 0x54 ]
    4394:	fa 27 a0 58 	st  %i5, [ %fp + 0x58 ]
    4398:	a8 10 00 19 	mov  %i1, %l4
    439c:	aa 10 00 1a 	mov  %i2, %l5
    43a0:	80 a2 60 00 	cmp  %o1, 0
    43a4:	e0 07 a0 5c 	ld  [ %fp + 0x5c ], %l0
    43a8:	12 80 00 95 	bne  45fc <_section0+0x33bc>
    43ac:	c0 27 bf c0 	clr  [ %fp + -64 ]
    43b0:	80 a5 20 00 	cmp  %l4, 0
    43b4:	06 80 00 9f 	bl  4630 <_section0+0x33f0>
    43b8:	1b 20 00 00 	sethi  %hi(0x80000000), %o5
    43bc:	1b 1f fc 00 	sethi  %hi(0x7ff00000), %o5
    43c0:	82 0d 00 0d 	and  %l4, %o5, %g1
    43c4:	80 a0 40 0d 	cmp  %g1, %o5
    43c8:	02 80 00 a2 	be  4650 <_section0+0x3410>
    43cc:	c0 24 00 00 	clr  [ %l0 ]
    43d0:	19 23 80 29 	sethi  %hi(0x8e00a400), %o4
    43d4:	90 10 00 14 	mov  %l4, %o0
    43d8:	92 10 00 15 	mov  %l5, %o1
    43dc:	40 00 15 cc 	call  9b0c <_section0+0x88cc>
    43e0:	d4 1b 23 78 	ldd  [ %o4 + 0x378 ], %o2
    43e4:	80 a2 20 00 	cmp  %o0, 0
    43e8:	12 80 00 0e 	bne  4420 <_section0+0x31e0>
    43ec:	82 10 20 01 	mov  1, %g1
    43f0:	da 07 a0 58 	ld  [ %fp + 0x58 ], %o5
    43f4:	c2 23 40 00 	st  %g1, [ %o5 ]
    43f8:	1b 23 80 29 	sethi  %hi(0x8e00a400), %o5
    43fc:	c2 07 a0 60 	ld  [ %fp + 0x60 ], %g1
    4400:	80 a0 60 00 	cmp  %g1, 0
    4404:	02 80 00 05 	be  4418 <_section0+0x31d8>
    4408:	b0 13 63 58 	or  %o5, 0x358, %i0
    440c:	82 06 20 01 	add  %i0, 1, %g1
    4410:	d6 07 a0 60 	ld  [ %fp + 0x60 ], %o3
    4414:	c2 22 c0 00 	st  %g1, [ %o3 ]
    4418:	10 80 04 8b 	b  5644 <_section0+0x4404>
    441c:	82 10 00 18 	mov  %i0, %g1
    4420:	d0 07 a0 44 	ld  [ %fp + 0x44 ], %o0
    4424:	92 10 00 14 	mov  %l4, %o1
    4428:	94 10 00 15 	mov  %l5, %o2
    442c:	96 07 bf f4 	add  %fp, -12, %o3
    4430:	40 00 0e 22 	call  7cb8 <_section0+0x6a78>
    4434:	98 07 bf f0 	add  %fp, -16, %o4
    4438:	83 35 20 14 	srl  %l4, 0x14, %g1
    443c:	b2 88 67 ff 	andcc  %g1, 0x7ff, %i1
    4440:	12 80 00 9f 	bne  46bc <_section0+0x347c>
    4444:	d0 27 bf c4 	st  %o0, [ %fp + -60 ]
    4448:	c2 07 bf f4 	ld  [ %fp + -12 ], %g1
    444c:	f4 07 bf f0 	ld  [ %fp + -16 ], %i2
    4450:	9a 06 80 01 	add  %i2, %g1, %o5
    4454:	b2 03 64 32 	add  %o5, 0x432, %i1
    4458:	82 20 00 19 	neg  %i1, %g1
    445c:	80 a6 60 20 	cmp  %i1, 0x20
    4460:	04 80 00 06 	ble  4478 <_section0+0x3238>
    4464:	a1 2d 40 01 	sll  %l5, %g1, %l0
    4468:	9a 03 64 12 	add  %o5, 0x412, %o5
    446c:	83 2d 00 01 	sll  %l4, %g1, %g1
    4470:	9b 35 40 0d 	srl  %l5, %o5, %o5
    4474:	a0 10 40 0d 	or  %g1, %o5, %l0
    4478:	40 00 16 22 	call  9d00 <_section0+0x8ac0>
    447c:	90 10 00 10 	mov  %l0, %o0
    4480:	80 a4 20 00 	cmp  %l0, 0
    4484:	06 80 03 e6 	bl  541c <_section0+0x41dc>
    4488:	19 23 80 29 	sethi  %hi(0x8e00a400), %o4
    448c:	03 3f 84 00 	sethi  %hi(0xfe100000), %g1
    4490:	9a 10 20 01 	mov  1, %o5
    4494:	ae 10 00 09 	mov  %o1, %l7
    4498:	ac 00 40 08 	add  %g1, %o0, %l6
    449c:	b2 06 7b cd 	add  %i1, -1075, %i1
    44a0:	da 27 bf c8 	st  %o5, [ %fp + -56 ]
    44a4:	03 23 80 29 	sethi  %hi(0x8e00a400), %g1
    44a8:	d4 18 63 b8 	ldd  [ %g1 + 0x3b8 ], %o2	! 8e00a7b8 <LEON_REG+0xe00a7b8>
    44ac:	90 10 00 16 	mov  %l6, %o0
    44b0:	40 00 14 2a 	call  9558 <_section0+0x8318>
    44b4:	92 10 00 17 	mov  %l7, %o1
    44b8:	19 23 80 29 	sethi  %hi(0x8e00a400), %o4
    44bc:	40 00 14 3e 	call  95b4 <_section0+0x8374>
    44c0:	d4 1b 23 c0 	ldd  [ %o4 + 0x3c0 ], %o2	! 8e00a7c0 <LEON_REG+0xe00a7c0>
    44c4:	1b 23 80 29 	sethi  %hi(0x8e00a400), %o5
    44c8:	40 00 14 10 	call  9508 <_section0+0x82c8>
    44cc:	d4 1b 63 c8 	ldd  [ %o5 + 0x3c8 ], %o2	! 8e00a7c8 <LEON_REG+0xe00a7c8>
    44d0:	a0 10 00 08 	mov  %o0, %l0
    44d4:	a2 10 00 09 	mov  %o1, %l1
    44d8:	40 00 16 0a 	call  9d00 <_section0+0x8ac0>
    44dc:	90 10 00 19 	mov  %i1, %o0
    44e0:	03 23 80 29 	sethi  %hi(0x8e00a400), %g1
    44e4:	40 00 14 34 	call  95b4 <_section0+0x8374>
    44e8:	d4 18 63 d0 	ldd  [ %g1 + 0x3d0 ], %o2	! 8e00a7d0 <LEON_REG+0xe00a7d0>
    44ec:	94 10 00 08 	mov  %o0, %o2
    44f0:	96 10 00 09 	mov  %o1, %o3
    44f4:	90 10 00 10 	mov  %l0, %o0
    44f8:	40 00 14 04 	call  9508 <_section0+0x82c8>
    44fc:	92 10 00 11 	mov  %l1, %o1
    4500:	a4 10 00 08 	mov  %o0, %l2
    4504:	a6 10 00 09 	mov  %o1, %l3
    4508:	40 00 16 3f 	call  9e04 <_section0+0x8bc4>
    450c:	90 10 00 12 	mov  %l2, %o0
    4510:	19 23 80 29 	sethi  %hi(0x8e00a400), %o4
    4514:	ba 10 00 08 	mov  %o0, %i5
    4518:	90 10 00 12 	mov  %l2, %o0
    451c:	92 10 00 13 	mov  %l3, %o1
    4520:	40 00 15 df 	call  9c9c <_section0+0x8a5c>
    4524:	d4 1b 23 78 	ldd  [ %o4 + 0x378 ], %o2
    4528:	80 a2 20 00 	cmp  %o0, 0
    452c:	06 80 02 a2 	bl  4fb4 <_section0+0x3d74>
    4530:	01 00 00 00 	nop 
    4534:	9a 10 20 01 	mov  1, %o5	! 1 <_start_svt_real+0x1>
    4538:	80 a7 60 16 	cmp  %i5, 0x16
    453c:	18 80 00 0f 	bgu  4578 <_section0+0x3338>
    4540:	da 27 bf d4 	st  %o5, [ %fp + -44 ]
    4544:	1b 23 80 2a 	sethi  %hi(0x8e00a800), %o5
    4548:	83 2f 60 03 	sll  %i5, 3, %g1
    454c:	9a 13 60 90 	or  %o5, 0x90, %o5
    4550:	96 03 40 01 	add  %o5, %g1, %o3
    4554:	d0 1a c0 00 	ldd  [ %o3 ], %o0
    4558:	94 10 00 14 	mov  %l4, %o2
    455c:	40 00 15 9e 	call  9bd4 <_section0+0x8994>
    4560:	96 10 00 15 	mov  %l5, %o3
    4564:	83 3a 20 1f 	sra  %o0, 0x1f, %g1
    4568:	82 20 40 08 	sub  %g1, %o0, %g1
    456c:	83 30 60 1f 	srl  %g1, 0x1f, %g1
    4570:	ba 27 40 01 	sub  %i5, %g1, %i5
    4574:	c0 27 bf d4 	clr  [ %fp + -44 ]
    4578:	82 26 80 19 	sub  %i2, %i1, %g1
    457c:	a0 80 7f ff 	addcc  %g1, -1, %l0
    4580:	2c 80 02 9b 	bneg,a   4fec <_section0+0x3dac>
    4584:	a0 20 00 10 	neg  %l0
    4588:	b8 10 00 10 	mov  %l0, %i4
    458c:	c0 27 bf ec 	clr  [ %fp + -20 ]
    4590:	80 a7 60 00 	cmp  %i5, 0
    4594:	06 80 02 90 	bl  4fd4 <_section0+0x3d94>
    4598:	d8 07 bf ec 	ld  [ %fp + -20 ], %o4
    459c:	b8 07 00 1d 	add  %i4, %i5, %i4
    45a0:	c0 27 bf e8 	clr  [ %fp + -24 ]
    45a4:	fa 27 bf cc 	st  %i5, [ %fp + -52 ]
    45a8:	80 a6 e0 0a 	cmp  %i3, 0xa
    45ac:	82 60 20 00 	subx  %g0, 0, %g1
    45b0:	b6 0e c0 01 	and  %i3, %g1, %i3
    45b4:	80 a6 e0 05 	cmp  %i3, 5
    45b8:	04 80 00 04 	ble  45c8 <_section0+0x3388>
    45bc:	a2 10 20 01 	mov  1, %l1
    45c0:	b6 06 ff fc 	add  %i3, -4, %i3
    45c4:	a2 10 20 00 	clr  %l1
    45c8:	96 10 3f ff 	mov  -1, %o3
    45cc:	82 10 20 01 	mov  1, %g1
    45d0:	80 a6 e0 05 	cmp  %i3, 5
    45d4:	c2 27 bf d0 	st  %g1, [ %fp + -48 ]
    45d8:	d6 27 bf dc 	st  %o3, [ %fp + -36 ]
    45dc:	18 80 00 4a 	bgu  4704 <_section0+0x34c4>
    45e0:	d6 27 bf e4 	st  %o3, [ %fp + -28 ]
    45e4:	1b 23 80 0b 	sethi  %hi(0x8e002c00), %o5
    45e8:	83 2e e0 02 	sll  %i3, 2, %g1
    45ec:	9a 13 63 34 	or  %o5, 0x334, %o5
    45f0:	d8 03 40 01 	ld  [ %o5 + %g1 ], %o4
    45f4:	81 c3 00 00 	jmp  %o4
    45f8:	01 00 00 00 	nop 
    45fc:	c2 06 20 44 	ld  [ %i0 + 0x44 ], %g1
    4600:	c2 22 60 04 	st  %g1, [ %o1 + 4 ]
    4604:	da 06 20 44 	ld  [ %i0 + 0x44 ], %o5
    4608:	82 10 20 01 	mov  1, %g1
    460c:	83 28 40 0d 	sll  %g1, %o5, %g1
    4610:	c2 22 60 08 	st  %g1, [ %o1 + 8 ]
    4614:	40 00 0a f7 	call  71f0 <_section0+0x5fb0>
    4618:	90 10 00 18 	mov  %i0, %o0
    461c:	d6 07 a0 44 	ld  [ %fp + 0x44 ], %o3
    4620:	80 a5 20 00 	cmp  %l4, 0
    4624:	16 bf ff 66 	bge  43bc <_section0+0x317c>
    4628:	c0 22 e0 40 	clr  [ %o3 + 0x40 ]
    462c:	1b 20 00 00 	sethi  %hi(0x80000000), %o5
    4630:	82 10 20 01 	mov  1, %g1
    4634:	a8 2d 00 0d 	andn  %l4, %o5, %l4
    4638:	1b 1f fc 00 	sethi  %hi(0x7ff00000), %o5
    463c:	c2 24 00 00 	st  %g1, [ %l0 ]
    4640:	82 0d 00 0d 	and  %l4, %o5, %g1
    4644:	80 a0 40 0d 	cmp  %g1, %o5
    4648:	12 bf ff 63 	bne  43d4 <_section0+0x3194>
    464c:	19 23 80 29 	sethi  %hi(0x8e00a400), %o4
    4650:	03 00 00 09 	sethi  %hi(0x2400), %g1
    4654:	82 10 63 0f 	or  %g1, 0x30f, %g1	! 270f <_section0+0x14cf>
    4658:	d8 07 a0 58 	ld  [ %fp + 0x58 ], %o4
    465c:	80 a5 60 00 	cmp  %l5, 0
    4660:	02 80 00 10 	be  46a0 <_section0+0x3460>
    4664:	c2 23 00 00 	st  %g1, [ %o4 ]
    4668:	03 23 80 29 	sethi  %hi(0x8e00a400), %g1
    466c:	b0 10 63 68 	or  %g1, 0x368, %i0	! 8e00a768 <LEON_REG+0xe00a768>
    4670:	da 07 a0 60 	ld  [ %fp + 0x60 ], %o5
    4674:	80 a3 60 00 	cmp  %o5, 0
    4678:	22 80 03 f3 	be,a   5644 <_section0+0x4404>
    467c:	82 10 00 18 	mov  %i0, %g1
    4680:	c2 4e 20 03 	ldsb  [ %i0 + 3 ], %g1
    4684:	80 a0 60 00 	cmp  %g1, 0
    4688:	12 bf ff 62 	bne  4410 <_section0+0x31d0>
    468c:	82 06 20 08 	add  %i0, 8, %g1
    4690:	82 06 20 03 	add  %i0, 3, %g1
    4694:	d6 07 a0 60 	ld  [ %fp + 0x60 ], %o3
    4698:	10 bf ff 60 	b  4418 <_section0+0x31d8>
    469c:	c2 22 c0 00 	st  %g1, [ %o3 ]
    46a0:	03 3f fc 00 	sethi  %hi(0xfff00000), %g1
    46a4:	1b 23 80 29 	sethi  %hi(0x8e00a400), %o5
    46a8:	80 ad 00 01 	andncc  %l4, %g1, %g0
    46ac:	02 bf ff f1 	be  4670 <_section0+0x3430>
    46b0:	b0 13 63 a0 	or  %o5, 0x3a0, %i0
    46b4:	10 bf ff ee 	b  466c <_section0+0x342c>
    46b8:	03 23 80 29 	sethi  %hi(0x8e00a400), %g1
    46bc:	03 3f fc 00 	sethi  %hi(0xfff00000), %g1
    46c0:	ac 2d 00 01 	andn  %l4, %g1, %l6
    46c4:	1b 0f fc 00 	sethi  %hi(0x3ff00000), %o5
    46c8:	ae 10 00 15 	mov  %l5, %l7
    46cc:	ac 13 40 16 	or  %o5, %l6, %l6
    46d0:	b2 06 7c 01 	add  %i1, -1023, %i1
    46d4:	c0 27 bf c8 	clr  [ %fp + -56 ]
    46d8:	10 bf ff 73 	b  44a4 <_section0+0x3264>
    46dc:	f4 07 bf f0 	ld  [ %fp + -16 ], %i2
    46e0:	c0 27 bf d0 	clr  [ %fp + -48 ]
    46e4:	d6 07 a0 54 	ld  [ %fp + 0x54 ], %o3
    46e8:	82 02 c0 1d 	add  %o3, %i5, %g1
    46ec:	b2 00 60 01 	add  %g1, 1, %i1
    46f0:	c2 27 bf dc 	st  %g1, [ %fp + -36 ]
    46f4:	80 a6 60 00 	cmp  %i1, 0
    46f8:	14 80 00 03 	bg  4704 <_section0+0x34c4>
    46fc:	f2 27 bf e4 	st  %i1, [ %fp + -28 ]
    4700:	b2 10 20 01 	mov  1, %i1
    4704:	d8 07 a0 44 	ld  [ %fp + 0x44 ], %o4
    4708:	c0 23 20 44 	clr  [ %o4 + 0x44 ]
    470c:	80 a6 60 17 	cmp  %i1, 0x17
    4710:	08 80 00 0a 	bleu  4738 <_section0+0x34f8>
    4714:	a0 10 20 04 	mov  4, %l0
    4718:	9a 10 20 00 	clr  %o5
    471c:	a0 04 00 10 	add  %l0, %l0, %l0
    4720:	82 04 20 14 	add  %l0, 0x14, %g1
    4724:	80 a0 40 19 	cmp  %g1, %i1
    4728:	08 bf ff fd 	bleu  471c <_section0+0x34dc>
    472c:	9a 03 60 01 	inc  %o5
    4730:	c2 07 a0 44 	ld  [ %fp + 0x44 ], %g1
    4734:	da 20 60 44 	st  %o5, [ %g1 + 0x44 ]
    4738:	d0 07 a0 44 	ld  [ %fp + 0x44 ], %o0
    473c:	40 00 0a 84 	call  714c <_section0+0x5f0c>
    4740:	d2 02 20 44 	ld  [ %o0 + 0x44 ], %o1
    4744:	d6 07 bf e4 	ld  [ %fp + -28 ], %o3
    4748:	80 a2 e0 0f 	cmp  %o3, 0xf
    474c:	82 40 20 00 	addx  %g0, 0, %g1
    4750:	d8 07 a0 44 	ld  [ %fp + 0x44 ], %o4
    4754:	d0 27 bf b8 	st  %o0, [ %fp + -72 ]
    4758:	80 88 40 11 	btst  %g1, %l1
    475c:	d0 23 20 40 	st  %o0, [ %o4 + 0x40 ]
    4760:	02 80 00 a0 	be  49e0 <_section0+0x37a0>
    4764:	b0 10 00 08 	mov  %o0, %i0
    4768:	80 a7 60 00 	cmp  %i5, 0
    476c:	b2 10 20 00 	clr  %i1
    4770:	ac 10 00 14 	mov  %l4, %l6
    4774:	ae 10 00 15 	mov  %l5, %l7
    4778:	fa 27 bf d8 	st  %i5, [ %fp + -40 ]
    477c:	d6 27 bf e0 	st  %o3, [ %fp + -32 ]
    4780:	04 80 03 02 	ble  5388 <_section0+0x4148>
    4784:	a2 10 20 02 	mov  2, %l1
    4788:	9a 0f 60 0f 	and  %i5, 0xf, %o5
    478c:	03 23 80 2a 	sethi  %hi(0x8e00a800), %g1
    4790:	9b 2b 60 03 	sll  %o5, 3, %o5
    4794:	82 10 60 90 	or  %g1, 0x90, %g1
    4798:	a1 3f 60 04 	sra  %i5, 4, %l0
    479c:	96 00 40 0d 	add  %g1, %o5, %o3
    47a0:	80 8c 20 10 	btst  0x10, %l0
    47a4:	12 80 01 8a 	bne  4dcc <_section0+0x3b8c>
    47a8:	e4 1a c0 00 	ldd  [ %o3 ], %l2
    47ac:	80 a4 20 00 	cmp  %l0, 0
    47b0:	02 80 00 13 	be  47fc <_section0+0x35bc>
    47b4:	03 23 80 2a 	sethi  %hi(0x8e00a800), %g1
    47b8:	b4 10 60 68 	or  %g1, 0x68, %i2	! 8e00a868 <LEON_REG+0xe00a868>
    47bc:	80 8c 20 01 	btst  1, %l0
    47c0:	22 80 00 0c 	be,a   47f0 <_section0+0x35b0>
    47c4:	a1 3c 20 01 	sra  %l0, 1, %l0
    47c8:	83 2e 60 03 	sll  %i1, 3, %g1
    47cc:	98 06 80 01 	add  %i2, %g1, %o4
    47d0:	90 10 00 12 	mov  %l2, %o0
    47d4:	92 10 00 13 	mov  %l3, %o1
    47d8:	40 00 13 77 	call  95b4 <_section0+0x8374>
    47dc:	d4 1b 00 00 	ldd  [ %o4 ], %o2
    47e0:	a4 10 00 08 	mov  %o0, %l2
    47e4:	a6 10 00 09 	mov  %o1, %l3
    47e8:	a2 04 60 01 	inc  %l1
    47ec:	a1 3c 20 01 	sra  %l0, 1, %l0
    47f0:	80 a4 20 00 	cmp  %l0, 0
    47f4:	12 bf ff f2 	bne  47bc <_section0+0x357c>
    47f8:	b2 06 60 01 	inc  %i1
    47fc:	90 10 00 14 	mov  %l4, %o0
    4800:	92 10 00 15 	mov  %l5, %o1
    4804:	94 10 00 12 	mov  %l2, %o2
    4808:	40 00 14 41 	call  990c <_section0+0x86cc>
    480c:	96 10 00 13 	mov  %l3, %o3
    4810:	a8 10 00 08 	mov  %o0, %l4
    4814:	aa 10 00 09 	mov  %o1, %l5
    4818:	da 07 bf d4 	ld  [ %fp + -44 ], %o5
    481c:	80 a3 60 00 	cmp  %o5, 0
    4820:	02 80 00 1d 	be  4894 <_section0+0x3654>
    4824:	03 23 80 29 	sethi  %hi(0x8e00a400), %g1
    4828:	90 10 00 14 	mov  %l4, %o0
    482c:	92 10 00 15 	mov  %l5, %o1
    4830:	40 00 15 1b 	call  9c9c <_section0+0x8a5c>
    4834:	d4 18 63 d8 	ldd  [ %g1 + 0x3d8 ], %o2
    4838:	80 a2 20 00 	cmp  %o0, 0
    483c:	06 80 03 3b 	bl  5528 <_section0+0x42e8>
    4840:	9a 10 20 00 	clr  %o5
    4844:	d6 07 bf e4 	ld  [ %fp + -28 ], %o3
    4848:	83 3a e0 1f 	sra  %o3, 0x1f, %g1
    484c:	82 20 40 0b 	sub  %g1, %o3, %g1
    4850:	83 30 60 1f 	srl  %g1, 0x1f, %g1
    4854:	80 8b 40 01 	btst  %o5, %g1
    4858:	02 80 00 0f 	be  4894 <_section0+0x3654>
    485c:	d8 07 bf dc 	ld  [ %fp + -36 ], %o4
    4860:	80 a3 20 00 	cmp  %o4, 0
    4864:	04 80 00 59 	ble  49c8 <_section0+0x3788>
    4868:	1b 23 80 29 	sethi  %hi(0x8e00a400), %o5
    486c:	94 10 00 14 	mov  %l4, %o2
    4870:	96 10 00 15 	mov  %l5, %o3
    4874:	40 00 13 50 	call  95b4 <_section0+0x8374>
    4878:	d0 1b 63 e0 	ldd  [ %o5 + 0x3e0 ], %o0
    487c:	c2 07 bf dc 	ld  [ %fp + -36 ], %g1
    4880:	a8 10 00 08 	mov  %o0, %l4
    4884:	aa 10 00 09 	mov  %o1, %l5
    4888:	ba 07 7f ff 	add  %i5, -1, %i5
    488c:	a2 04 60 01 	inc  %l1
    4890:	c2 27 bf e4 	st  %g1, [ %fp + -28 ]
    4894:	40 00 15 1b 	call  9d00 <_section0+0x8ac0>
    4898:	90 10 00 11 	mov  %l1, %o0
    489c:	94 10 00 14 	mov  %l4, %o2
    48a0:	40 00 13 45 	call  95b4 <_section0+0x8374>
    48a4:	96 10 00 15 	mov  %l5, %o3
    48a8:	19 23 80 29 	sethi  %hi(0x8e00a400), %o4
    48ac:	40 00 13 17 	call  9508 <_section0+0x82c8>
    48b0:	d4 1b 23 e8 	ldd  [ %o4 + 0x3e8 ], %o2	! 8e00a7e8 <LEON_REG+0xe00a7e8>
    48b4:	a4 10 00 08 	mov  %o0, %l2
    48b8:	03 3f 30 00 	sethi  %hi(0xfcc00000), %g1
    48bc:	da 07 bf e4 	ld  [ %fp + -28 ], %o5
    48c0:	a6 10 00 09 	mov  %o1, %l3
    48c4:	80 a3 60 00 	cmp  %o5, 0
    48c8:	12 80 01 73 	bne  4e94 <_section0+0x3c54>
    48cc:	a4 00 40 12 	add  %g1, %l2, %l2
    48d0:	03 23 80 29 	sethi  %hi(0x8e00a400), %g1
    48d4:	d4 18 63 f0 	ldd  [ %g1 + 0x3f0 ], %o2	! 8e00a7f0 <LEON_REG+0xe00a7f0>
    48d8:	90 10 00 14 	mov  %l4, %o0
    48dc:	40 00 13 1f 	call  9558 <_section0+0x8318>
    48e0:	92 10 00 15 	mov  %l5, %o1
    48e4:	a0 10 00 08 	mov  %o0, %l0
    48e8:	a2 10 00 09 	mov  %o1, %l1
    48ec:	90 10 00 10 	mov  %l0, %o0
    48f0:	94 10 00 12 	mov  %l2, %o2
    48f4:	40 00 14 b8 	call  9bd4 <_section0+0x8994>
    48f8:	96 10 00 13 	mov  %l3, %o3
    48fc:	80 a2 20 00 	cmp  %o0, 0
    4900:	c0 27 bf bc 	clr  [ %fp + -68 ]
    4904:	04 80 00 27 	ble  49a0 <_section0+0x3760>
    4908:	b4 10 20 00 	clr  %i2
    490c:	d6 07 bf b8 	ld  [ %fp + -72 ], %o3
    4910:	82 10 20 31 	mov  0x31, %g1
    4914:	c2 2a c0 00 	stb  %g1, [ %o3 ]
    4918:	ba 07 60 01 	inc  %i5
    491c:	b0 02 e0 01 	add  %o3, 1, %i0
    4920:	92 10 00 1a 	mov  %i2, %o1
    4924:	40 00 0a 33 	call  71f0 <_section0+0x5fb0>
    4928:	d0 07 a0 44 	ld  [ %fp + 0x44 ], %o0
    492c:	da 07 bf bc 	ld  [ %fp + -68 ], %o5
    4930:	80 a3 60 00 	cmp  %o5, 0
    4934:	02 80 00 0e 	be  496c <_section0+0x372c>
    4938:	c2 07 bf c0 	ld  [ %fp + -64 ], %g1
    493c:	80 a0 00 01 	cmp  %g0, %g1
    4940:	d6 07 bf c0 	ld  [ %fp + -64 ], %o3
    4944:	82 40 20 00 	addx  %g0, 0, %g1
    4948:	9a 1a c0 0d 	xor  %o3, %o5, %o5
    494c:	80 a0 00 0d 	cmp  %g0, %o5
    4950:	98 40 20 00 	addx  %g0, 0, %o4
    4954:	80 88 40 0c 	btst  %g1, %o4
    4958:	32 80 01 a8 	bne,a   4ff8 <_section0+0x3db8>
    495c:	92 10 00 0b 	mov  %o3, %o1
    4960:	d2 07 bf bc 	ld  [ %fp + -68 ], %o1
    4964:	40 00 0a 23 	call  71f0 <_section0+0x5fb0>
    4968:	d0 07 a0 44 	ld  [ %fp + 0x44 ], %o0
    496c:	d0 07 a0 44 	ld  [ %fp + 0x44 ], %o0
    4970:	40 00 0a 20 	call  71f0 <_section0+0x5fb0>
    4974:	d2 07 bf c4 	ld  [ %fp + -60 ], %o1
    4978:	c0 2e 00 00 	clrb  [ %i0 ]
    497c:	82 07 60 01 	add  %i5, 1, %g1
    4980:	d8 07 a0 58 	ld  [ %fp + 0x58 ], %o4
    4984:	da 07 a0 60 	ld  [ %fp + 0x60 ], %o5
    4988:	80 a3 60 00 	cmp  %o5, 0
    498c:	02 80 00 03 	be  4998 <_section0+0x3758>
    4990:	c2 23 00 00 	st  %g1, [ %o4 ]
    4994:	f0 23 40 00 	st  %i0, [ %o5 ]
    4998:	10 80 03 2b 	b  5644 <_section0+0x4404>
    499c:	c2 07 bf b8 	ld  [ %fp + -72 ], %g1
    49a0:	19 20 00 00 	sethi  %hi(0x80000000), %o4
    49a4:	9a 10 20 00 	clr  %o5
    49a8:	90 1c 80 0c 	xor  %l2, %o4, %o0
    49ac:	92 1c c0 0d 	xor  %l3, %o5, %o1
    49b0:	94 10 00 10 	mov  %l0, %o2
    49b4:	40 00 14 88 	call  9bd4 <_section0+0x8994>
    49b8:	96 10 00 11 	mov  %l1, %o3
    49bc:	80 a2 20 00 	cmp  %o0, 0
    49c0:	14 80 00 2f 	bg  4a7c <_section0+0x383c>
    49c4:	da 07 a0 54 	ld  [ %fp + 0x54 ], %o5
    49c8:	d6 07 bf e0 	ld  [ %fp + -32 ], %o3
    49cc:	a8 10 00 16 	mov  %l6, %l4
    49d0:	aa 10 00 17 	mov  %l7, %l5
    49d4:	fa 07 bf d8 	ld  [ %fp + -40 ], %i5
    49d8:	d6 27 bf e4 	st  %o3, [ %fp + -28 ]
    49dc:	f0 07 bf b8 	ld  [ %fp + -72 ], %i0
    49e0:	d0 07 bf f4 	ld  [ %fp + -12 ], %o0
    49e4:	82 38 00 08 	xnor  %g0, %o0, %g1
    49e8:	83 30 60 1f 	srl  %g1, 0x1f, %g1
    49ec:	80 a7 60 0e 	cmp  %i5, 0xe
    49f0:	04 80 00 03 	ble  49fc <_section0+0x37bc>
    49f4:	98 10 20 01 	mov  1, %o4
    49f8:	98 10 20 00 	clr  %o4
    49fc:	80 88 40 0c 	btst  %g1, %o4
    4a00:	02 80 00 21 	be  4a84 <_section0+0x3844>
    4a04:	da 07 bf d0 	ld  [ %fp + -48 ], %o5
    4a08:	d8 07 bf e4 	ld  [ %fp + -28 ], %o4
    4a0c:	82 03 3f ff 	add  %o4, -1, %g1
    4a10:	82 13 00 01 	or  %o4, %g1, %g1
    4a14:	1b 23 80 2a 	sethi  %hi(0x8e00a800), %o5
    4a18:	99 2f 60 03 	sll  %i5, 3, %o4
    4a1c:	9a 13 60 90 	or  %o5, 0x90, %o5
    4a20:	96 03 40 0c 	add  %o5, %o4, %o3
    4a24:	d8 07 a0 54 	ld  [ %fp + 0x54 ], %o4
    4a28:	e4 1a c0 00 	ldd  [ %o3 ], %l2
    4a2c:	80 88 40 0c 	btst  %g1, %o4
    4a30:	16 80 00 a8 	bge  4cd0 <_section0+0x3a90>
    4a34:	b2 10 20 01 	mov  1, %i1
    4a38:	da 07 bf e4 	ld  [ %fp + -28 ], %o5
    4a3c:	80 a3 60 00 	cmp  %o5, 0
    4a40:	c0 27 bf bc 	clr  [ %fp + -68 ]
    4a44:	06 80 00 0d 	bl  4a78 <_section0+0x3838>
    4a48:	b4 10 20 00 	clr  %i2
    4a4c:	03 23 80 29 	sethi  %hi(0x8e00a400), %g1
    4a50:	d4 18 63 f0 	ldd  [ %g1 + 0x3f0 ], %o2	! 8e00a7f0 <LEON_REG+0xe00a7f0>
    4a54:	90 10 00 12 	mov  %l2, %o0
    4a58:	40 00 12 d7 	call  95b4 <_section0+0x8374>
    4a5c:	92 10 00 13 	mov  %l3, %o1
    4a60:	94 10 00 14 	mov  %l4, %o2
    4a64:	40 00 14 75 	call  9c38 <_section0+0x89f8>
    4a68:	96 10 00 15 	mov  %l5, %o3
    4a6c:	80 a2 20 00 	cmp  %o0, 0
    4a70:	06 bf ff a8 	bl  4910 <_section0+0x36d0>
    4a74:	d6 07 bf b8 	ld  [ %fp + -72 ], %o3
    4a78:	da 07 a0 54 	ld  [ %fp + 0x54 ], %o5
    4a7c:	10 bf ff a9 	b  4920 <_section0+0x36e0>
    4a80:	ba 38 00 0d 	xnor  %g0, %o5, %i5
    4a84:	80 a3 60 00 	cmp  %o5, 0
    4a88:	e4 07 bf ec 	ld  [ %fp + -20 ], %l2
    4a8c:	e2 07 bf e8 	ld  [ %fp + -24 ], %l1
    4a90:	c0 27 bf c0 	clr  [ %fp + -64 ]
    4a94:	12 80 00 d8 	bne  4df4 <_section0+0x3bb4>
    4a98:	c0 27 bf bc 	clr  [ %fp + -68 ]
    4a9c:	9b 3c a0 1f 	sra  %l2, 0x1f, %o5
    4aa0:	83 3f 20 1f 	sra  %i4, 0x1f, %g1
    4aa4:	9a 23 40 12 	sub  %o5, %l2, %o5
    4aa8:	82 20 40 1c 	sub  %g1, %i4, %g1
    4aac:	80 88 40 0d 	btst  %g1, %o5
    4ab0:	16 80 00 0c 	bge  4ae0 <_section0+0x38a0>
    4ab4:	da 07 bf e8 	ld  [ %fp + -24 ], %o5
    4ab8:	80 a7 00 12 	cmp  %i4, %l2
    4abc:	04 80 00 03 	ble  4ac8 <_section0+0x3888>
    4ac0:	b2 10 00 1c 	mov  %i4, %i1
    4ac4:	b2 10 00 12 	mov  %l2, %i1
    4ac8:	d8 07 bf ec 	ld  [ %fp + -20 ], %o4
    4acc:	98 23 00 19 	sub  %o4, %i1, %o4
    4ad0:	b8 27 00 19 	sub  %i4, %i1, %i4
    4ad4:	d8 27 bf ec 	st  %o4, [ %fp + -20 ]
    4ad8:	a4 24 80 19 	sub  %l2, %i1, %l2
    4adc:	da 07 bf e8 	ld  [ %fp + -24 ], %o5
    4ae0:	80 a3 60 00 	cmp  %o5, 0
    4ae4:	04 80 00 18 	ble  4b44 <_section0+0x3904>
    4ae8:	c2 07 bf d0 	ld  [ %fp + -48 ], %g1
    4aec:	80 a0 60 00 	cmp  %g1, 0
    4af0:	02 80 02 77 	be  54cc <_section0+0x428c>
    4af4:	80 a4 60 00 	cmp  %l1, 0
    4af8:	04 80 00 0f 	ble  4b34 <_section0+0x38f4>
    4afc:	94 10 00 11 	mov  %l1, %o2
    4b00:	d2 07 bf bc 	ld  [ %fp + -68 ], %o1
    4b04:	40 00 0b 13 	call  7750 <_section0+0x6510>
    4b08:	d0 07 a0 44 	ld  [ %fp + 0x44 ], %o0
    4b0c:	d0 27 bf bc 	st  %o0, [ %fp + -68 ]
    4b10:	d2 07 bf bc 	ld  [ %fp + -68 ], %o1
    4b14:	d4 07 bf c4 	ld  [ %fp + -60 ], %o2
    4b18:	40 00 0a 87 	call  7534 <_section0+0x62f4>
    4b1c:	d0 07 a0 44 	ld  [ %fp + 0x44 ], %o0
    4b20:	a0 10 00 08 	mov  %o0, %l0
    4b24:	d0 07 a0 44 	ld  [ %fp + 0x44 ], %o0
    4b28:	40 00 09 b2 	call  71f0 <_section0+0x5fb0>
    4b2c:	d2 07 bf c4 	ld  [ %fp + -60 ], %o1
    4b30:	e0 27 bf c4 	st  %l0, [ %fp + -60 ]
    4b34:	d6 07 bf e8 	ld  [ %fp + -24 ], %o3
    4b38:	a0 a2 c0 11 	subcc  %o3, %l1, %l0
    4b3c:	12 80 02 7d 	bne  5530 <_section0+0x42f0>
    4b40:	d2 07 bf c4 	ld  [ %fp + -60 ], %o1
    4b44:	d0 07 a0 44 	ld  [ %fp + 0x44 ], %o0
    4b48:	40 00 0a 72 	call  7510 <_section0+0x62d0>
    4b4c:	92 10 20 01 	mov  1, %o1
    4b50:	d8 07 bf cc 	ld  [ %fp + -52 ], %o4
    4b54:	80 a3 20 00 	cmp  %o4, 0
    4b58:	04 80 00 07 	ble  4b74 <_section0+0x3934>
    4b5c:	b4 10 00 08 	mov  %o0, %i2
    4b60:	92 10 00 08 	mov  %o0, %o1
    4b64:	d0 07 a0 44 	ld  [ %fp + 0x44 ], %o0
    4b68:	40 00 0a fa 	call  7750 <_section0+0x6510>
    4b6c:	94 10 00 0c 	mov  %o4, %o2
    4b70:	b4 10 00 08 	mov  %o0, %i2
    4b74:	80 a6 e0 01 	cmp  %i3, 1
    4b78:	04 80 02 5b 	ble  54e4 <_section0+0x42a4>
    4b7c:	a0 10 20 00 	clr  %l0
    4b80:	82 07 20 01 	add  %i4, 1, %g1
    4b84:	d6 07 bf cc 	ld  [ %fp + -52 ], %o3
    4b88:	80 a2 e0 00 	cmp  %o3, 0
    4b8c:	12 80 02 43 	bne  5498 <_section0+0x4258>
    4b90:	b2 08 60 1f 	and  %g1, 0x1f, %i1
    4b94:	80 a6 60 00 	cmp  %i1, 0
    4b98:	02 80 00 05 	be  4bac <_section0+0x396c>
    4b9c:	80 a6 60 04 	cmp  %i1, 4
    4ba0:	82 10 20 20 	mov  0x20, %g1
    4ba4:	b2 20 40 19 	sub  %g1, %i1, %i1
    4ba8:	80 a6 60 04 	cmp  %i1, 4
    4bac:	04 80 01 17 	ble  5008 <_section0+0x3dc8>
    4bb0:	80 a6 60 03 	cmp  %i1, 3
    4bb4:	b2 06 7f fc 	add  %i1, -4, %i1
    4bb8:	d8 07 bf ec 	ld  [ %fp + -20 ], %o4
    4bbc:	98 03 00 19 	add  %o4, %i1, %o4
    4bc0:	b8 07 00 19 	add  %i4, %i1, %i4
    4bc4:	d8 27 bf ec 	st  %o4, [ %fp + -20 ]
    4bc8:	a4 04 80 19 	add  %l2, %i1, %l2
    4bcc:	c2 07 bf ec 	ld  [ %fp + -20 ], %g1
    4bd0:	80 a0 60 00 	cmp  %g1, 0
    4bd4:	04 80 00 06 	ble  4bec <_section0+0x39ac>
    4bd8:	d2 07 bf c4 	ld  [ %fp + -60 ], %o1
    4bdc:	94 10 00 01 	mov  %g1, %o2
    4be0:	40 00 0b 26 	call  7878 <_section0+0x6638>
    4be4:	d0 07 a0 44 	ld  [ %fp + 0x44 ], %o0
    4be8:	d0 27 bf c4 	st  %o0, [ %fp + -60 ]
    4bec:	80 a7 20 00 	cmp  %i4, 0
    4bf0:	04 80 00 06 	ble  4c08 <_section0+0x39c8>
    4bf4:	92 10 00 1a 	mov  %i2, %o1
    4bf8:	94 10 00 1c 	mov  %i4, %o2
    4bfc:	40 00 0b 1f 	call  7878 <_section0+0x6638>
    4c00:	d0 07 a0 44 	ld  [ %fp + 0x44 ], %o0
    4c04:	b4 10 00 08 	mov  %o0, %i2
    4c08:	d6 07 bf d4 	ld  [ %fp + -44 ], %o3
    4c0c:	80 a2 e0 00 	cmp  %o3, 0
    4c10:	12 80 02 07 	bne  542c <_section0+0x41ec>
    4c14:	d0 07 bf c4 	ld  [ %fp + -60 ], %o0
    4c18:	d6 07 bf e4 	ld  [ %fp + -28 ], %o3
    4c1c:	82 02 ff ff 	add  %o3, -1, %g1
    4c20:	82 12 c0 01 	or  %o3, %g1, %g1
    4c24:	83 30 60 1f 	srl  %g1, 0x1f, %g1
    4c28:	80 a6 e0 02 	cmp  %i3, 2
    4c2c:	14 80 00 03 	bg  4c38 <_section0+0x39f8>
    4c30:	9a 10 20 01 	mov  1, %o5
    4c34:	9a 10 20 00 	clr  %o5
    4c38:	80 88 40 0d 	btst  %g1, %o5
    4c3c:	02 80 00 fb 	be  5028 <_section0+0x3de8>
    4c40:	d8 07 bf d0 	ld  [ %fp + -48 ], %o4
    4c44:	d8 07 bf e4 	ld  [ %fp + -28 ], %o4
    4c48:	80 a3 20 00 	cmp  %o4, 0
    4c4c:	06 bf ff 8b 	bl  4a78 <_section0+0x3838>
    4c50:	92 10 00 1a 	mov  %i2, %o1
    4c54:	94 10 20 05 	mov  5, %o2
    4c58:	96 10 20 00 	clr  %o3
    4c5c:	40 00 09 70 	call  721c <_section0+0x5fdc>
    4c60:	d0 07 a0 44 	ld  [ %fp + 0x44 ], %o0
    4c64:	b4 10 00 08 	mov  %o0, %i2
    4c68:	d0 07 bf c4 	ld  [ %fp + -60 ], %o0
    4c6c:	40 00 0b 48 	call  798c <_section0+0x674c>
    4c70:	92 10 00 1a 	mov  %i2, %o1
    4c74:	80 a2 20 00 	cmp  %o0, 0
    4c78:	14 bf ff 26 	bg  4910 <_section0+0x36d0>
    4c7c:	d6 07 bf b8 	ld  [ %fp + -72 ], %o3
    4c80:	da 07 a0 54 	ld  [ %fp + 0x54 ], %o5
    4c84:	10 bf ff 27 	b  4920 <_section0+0x36e0>
    4c88:	ba 38 00 0d 	xnor  %g0, %o5, %i5
    4c8c:	94 10 00 08 	mov  %o0, %o2
    4c90:	96 10 00 09 	mov  %o1, %o3
    4c94:	03 23 80 29 	sethi  %hi(0x8e00a400), %g1
    4c98:	40 00 12 47 	call  95b4 <_section0+0x8374>
    4c9c:	d0 18 63 e0 	ldd  [ %g1 + 0x3e0 ], %o0	! 8e00a7e0 <LEON_REG+0xe00a7e0>
    4ca0:	98 10 00 08 	mov  %o0, %o4
    4ca4:	90 10 00 0c 	mov  %o4, %o0
    4ca8:	a8 10 00 0c 	mov  %o4, %l4
    4cac:	9a 10 00 09 	mov  %o1, %o5
    4cb0:	19 23 80 29 	sethi  %hi(0x8e00a400), %o4
    4cb4:	aa 10 00 0d 	mov  %o5, %l5
    4cb8:	40 00 13 95 	call  9b0c <_section0+0x88cc>
    4cbc:	d4 1b 23 78 	ldd  [ %o4 + 0x378 ], %o2
    4cc0:	80 a2 20 00 	cmp  %o0, 0
    4cc4:	02 bf ff 2b 	be  4970 <_section0+0x3730>
    4cc8:	d0 07 a0 44 	ld  [ %fp + 0x44 ], %o0
    4ccc:	b2 06 60 01 	inc  %i1
    4cd0:	94 10 00 12 	mov  %l2, %o2
    4cd4:	96 10 00 13 	mov  %l3, %o3
    4cd8:	90 10 00 14 	mov  %l4, %o0
    4cdc:	40 00 13 0c 	call  990c <_section0+0x86cc>
    4ce0:	92 10 00 15 	mov  %l5, %o1
    4ce4:	40 00 14 48 	call  9e04 <_section0+0x8bc4>
    4ce8:	01 00 00 00 	nop 
    4cec:	40 00 14 05 	call  9d00 <_section0+0x8ac0>
    4cf0:	b4 10 00 08 	mov  %o0, %i2
    4cf4:	94 10 00 12 	mov  %l2, %o2
    4cf8:	40 00 12 2f 	call  95b4 <_section0+0x8374>
    4cfc:	96 10 00 13 	mov  %l3, %o3
    4d00:	96 10 00 09 	mov  %o1, %o3
    4d04:	94 10 00 08 	mov  %o0, %o2
    4d08:	90 10 00 14 	mov  %l4, %o0
    4d0c:	40 00 12 13 	call  9558 <_section0+0x8318>
    4d10:	92 10 00 15 	mov  %l5, %o1
    4d14:	82 06 a0 30 	add  %i2, 0x30, %g1
    4d18:	c2 2e 00 00 	stb  %g1, [ %i0 ]
    4d1c:	d6 07 bf e4 	ld  [ %fp + -28 ], %o3
    4d20:	80 a6 40 0b 	cmp  %i1, %o3
    4d24:	12 bf ff da 	bne  4c8c <_section0+0x3a4c>
    4d28:	b0 06 20 01 	inc  %i0
    4d2c:	94 10 00 08 	mov  %o0, %o2
    4d30:	40 00 11 f6 	call  9508 <_section0+0x82c8>
    4d34:	96 10 00 09 	mov  %o1, %o3
    4d38:	a0 10 00 08 	mov  %o0, %l0
    4d3c:	a2 10 00 09 	mov  %o1, %l1
    4d40:	90 10 00 12 	mov  %l2, %o0
    4d44:	92 10 00 13 	mov  %l3, %o1
    4d48:	94 10 00 10 	mov  %l0, %o2
    4d4c:	40 00 13 d4 	call  9c9c <_section0+0x8a5c>
    4d50:	96 10 00 11 	mov  %l1, %o3
    4d54:	80 a2 20 00 	cmp  %o0, 0
    4d58:	06 80 00 0c 	bl  4d88 <_section0+0x3b48>
    4d5c:	90 10 00 12 	mov  %l2, %o0
    4d60:	92 10 00 13 	mov  %l3, %o1
    4d64:	94 10 00 10 	mov  %l0, %o2
    4d68:	40 00 13 69 	call  9b0c <_section0+0x88cc>
    4d6c:	96 10 00 11 	mov  %l1, %o3
    4d70:	80 a2 20 00 	cmp  %o0, 0
    4d74:	12 bf fe ff 	bne  4970 <_section0+0x3730>
    4d78:	d0 07 a0 44 	ld  [ %fp + 0x44 ], %o0
    4d7c:	80 8e a0 01 	btst  1, %i2
    4d80:	02 bf fe fc 	be  4970 <_section0+0x3730>
    4d84:	01 00 00 00 	nop 
    4d88:	b0 06 3f ff 	add  %i0, -1, %i0
    4d8c:	c2 4e 00 00 	ldsb  [ %i0 ], %g1
    4d90:	80 a0 60 39 	cmp  %g1, 0x39
    4d94:	12 80 00 09 	bne  4db8 <_section0+0x3b78>
    4d98:	d8 07 bf b8 	ld  [ %fp + -72 ], %o4
    4d9c:	80 a6 00 0c 	cmp  %i0, %o4
    4da0:	32 bf ff fb 	bne,a   4d8c <_section0+0x3b4c>
    4da4:	b0 06 3f ff 	add  %i0, -1, %i0
    4da8:	82 10 20 30 	mov  0x30, %g1
    4dac:	da 07 bf b8 	ld  [ %fp + -72 ], %o5
    4db0:	c2 2b 40 00 	stb  %g1, [ %o5 ]
    4db4:	ba 07 60 01 	inc  %i5
    4db8:	c2 0e 00 00 	ldub  [ %i0 ], %g1
    4dbc:	82 00 60 01 	inc  %g1
    4dc0:	c2 2e 00 00 	stb  %g1, [ %i0 ]
    4dc4:	10 bf fe ea 	b  496c <_section0+0x372c>
    4dc8:	b0 06 20 01 	inc  %i0
    4dcc:	03 23 80 2a 	sethi  %hi(0x8e00a800), %g1
    4dd0:	90 10 00 14 	mov  %l4, %o0
    4dd4:	92 10 00 15 	mov  %l5, %o1
    4dd8:	40 00 12 cd 	call  990c <_section0+0x86cc>
    4ddc:	d4 18 60 88 	ldd  [ %g1 + 0x88 ], %o2
    4de0:	a8 10 00 08 	mov  %o0, %l4
    4de4:	aa 10 00 09 	mov  %o1, %l5
    4de8:	a0 0c 20 0f 	and  %l0, 0xf, %l0
    4dec:	10 bf fe 70 	b  47ac <_section0+0x356c>
    4df0:	a2 10 20 03 	mov  3, %l1
    4df4:	80 a6 e0 01 	cmp  %i3, 1
    4df8:	04 80 01 d2 	ble  5540 <_section0+0x4300>
    4dfc:	d6 07 bf e4 	ld  [ %fp + -28 ], %o3
    4e00:	a0 02 ff ff 	add  %o3, -1, %l0
    4e04:	d8 07 bf e8 	ld  [ %fp + -24 ], %o4
    4e08:	80 a3 00 10 	cmp  %o4, %l0
    4e0c:	16 80 00 09 	bge  4e30 <_section0+0x3bf0>
    4e10:	a2 23 00 10 	sub  %o4, %l0, %l1
    4e14:	a0 24 00 0c 	sub  %l0, %o4, %l0
    4e18:	da 07 bf cc 	ld  [ %fp + -52 ], %o5
    4e1c:	98 03 00 10 	add  %o4, %l0, %o4
    4e20:	9a 03 40 10 	add  %o5, %l0, %o5
    4e24:	d8 27 bf e8 	st  %o4, [ %fp + -24 ]
    4e28:	da 27 bf cc 	st  %o5, [ %fp + -52 ]
    4e2c:	a2 10 20 00 	clr  %l1
    4e30:	f2 07 bf e4 	ld  [ %fp + -28 ], %i1
    4e34:	80 a6 60 00 	cmp  %i1, 0
    4e38:	06 80 01 e1 	bl  55bc <_section0+0x437c>
    4e3c:	c2 07 bf ec 	ld  [ %fp + -20 ], %g1
    4e40:	d0 07 a0 44 	ld  [ %fp + 0x44 ], %o0
    4e44:	40 00 09 b3 	call  7510 <_section0+0x62d0>
    4e48:	92 10 20 01 	mov  1, %o1
    4e4c:	d6 07 bf ec 	ld  [ %fp + -20 ], %o3
    4e50:	96 02 c0 19 	add  %o3, %i1, %o3
    4e54:	d0 27 bf bc 	st  %o0, [ %fp + -68 ]
    4e58:	b8 07 00 19 	add  %i4, %i1, %i4
    4e5c:	10 bf ff 10 	b  4a9c <_section0+0x385c>
    4e60:	d6 27 bf ec 	st  %o3, [ %fp + -20 ]
    4e64:	c0 27 bf d0 	clr  [ %fp + -48 ]
    4e68:	d8 07 a0 54 	ld  [ %fp + 0x54 ], %o4
    4e6c:	80 a3 20 00 	cmp  %o4, 0
    4e70:	04 80 01 b2 	ble  5538 <_section0+0x42f8>
    4e74:	9a 10 20 01 	mov  1, %o5
    4e78:	f2 07 a0 54 	ld  [ %fp + 0x54 ], %i1
    4e7c:	f2 27 bf dc 	st  %i1, [ %fp + -36 ]
    4e80:	10 bf fe 21 	b  4704 <_section0+0x34c4>
    4e84:	f2 27 bf e4 	st  %i1, [ %fp + -28 ]
    4e88:	b2 10 20 12 	mov  0x12, %i1
    4e8c:	10 bf fe 1e 	b  4704 <_section0+0x34c4>
    4e90:	c0 27 a0 54 	clr  [ %fp + 0x54 ]
    4e94:	d6 07 bf d0 	ld  [ %fp + -48 ], %o3
    4e98:	80 a2 e0 00 	cmp  %o3, 0
    4e9c:	02 80 00 f9 	be  5280 <_section0+0x4040>
    4ea0:	c2 07 bf e4 	ld  [ %fp + -28 ], %g1
    4ea4:	d8 07 bf e4 	ld  [ %fp + -28 ], %o4
    4ea8:	03 23 80 2a 	sethi  %hi(0x8e00a800), %g1
    4eac:	9b 2b 20 03 	sll  %o4, 3, %o5
    4eb0:	82 10 60 90 	or  %g1, 0x90, %g1
    4eb4:	9a 03 40 01 	add  %o5, %g1, %o5
    4eb8:	d4 1b 7f f8 	ldd  [ %o5 + -8 ], %o2
    4ebc:	1b 23 80 29 	sethi  %hi(0x8e00a400), %o5
    4ec0:	40 00 12 93 	call  990c <_section0+0x86cc>
    4ec4:	d0 1b 63 f8 	ldd  [ %o5 + 0x3f8 ], %o0	! 8e00a7f8 <LEON_REG+0xe00a7f8>
    4ec8:	94 10 00 12 	mov  %l2, %o2
    4ecc:	40 00 11 a3 	call  9558 <_section0+0x8318>
    4ed0:	96 10 00 13 	mov  %l3, %o3
    4ed4:	a4 10 00 08 	mov  %o0, %l2
    4ed8:	a6 10 00 09 	mov  %o1, %l3
    4edc:	10 80 00 0f 	b  4f18 <_section0+0x3cd8>
    4ee0:	b2 10 20 00 	clr  %i1
    4ee4:	94 10 00 12 	mov  %l2, %o2
    4ee8:	96 10 00 13 	mov  %l3, %o3
    4eec:	40 00 11 b2 	call  95b4 <_section0+0x8374>
    4ef0:	d0 1b 23 e0 	ldd  [ %o4 + 0x3e0 ], %o0
    4ef4:	1b 23 80 29 	sethi  %hi(0x8e00a400), %o5
    4ef8:	a4 10 00 08 	mov  %o0, %l2
    4efc:	a6 10 00 09 	mov  %o1, %l3
    4f00:	94 10 00 10 	mov  %l0, %o2
    4f04:	96 10 00 11 	mov  %l1, %o3
    4f08:	40 00 11 ab 	call  95b4 <_section0+0x8374>
    4f0c:	d0 1b 63 e0 	ldd  [ %o5 + 0x3e0 ], %o0
    4f10:	a8 10 00 08 	mov  %o0, %l4
    4f14:	aa 10 00 09 	mov  %o1, %l5
    4f18:	92 10 00 15 	mov  %l5, %o1
    4f1c:	40 00 13 ba 	call  9e04 <_section0+0x8bc4>
    4f20:	90 10 00 14 	mov  %l4, %o0
    4f24:	40 00 13 77 	call  9d00 <_section0+0x8ac0>
    4f28:	b4 10 00 08 	mov  %o0, %i2
    4f2c:	94 10 00 08 	mov  %o0, %o2
    4f30:	96 10 00 09 	mov  %o1, %o3
    4f34:	90 10 00 14 	mov  %l4, %o0
    4f38:	40 00 11 88 	call  9558 <_section0+0x8318>
    4f3c:	92 10 00 15 	mov  %l5, %o1
    4f40:	82 06 a0 30 	add  %i2, 0x30, %g1
    4f44:	a0 10 00 08 	mov  %o0, %l0
    4f48:	c2 2e 00 00 	stb  %g1, [ %i0 ]
    4f4c:	a2 10 00 09 	mov  %o1, %l1
    4f50:	90 10 00 10 	mov  %l0, %o0
    4f54:	94 10 00 12 	mov  %l2, %o2
    4f58:	40 00 13 51 	call  9c9c <_section0+0x8a5c>
    4f5c:	96 10 00 13 	mov  %l3, %o3
    4f60:	80 a2 20 00 	cmp  %o0, 0
    4f64:	06 bf fe 82 	bl  496c <_section0+0x372c>
    4f68:	b0 06 20 01 	inc  %i0
    4f6c:	03 23 80 29 	sethi  %hi(0x8e00a400), %g1
    4f70:	94 10 00 10 	mov  %l0, %o2
    4f74:	96 10 00 11 	mov  %l1, %o3
    4f78:	40 00 11 78 	call  9558 <_section0+0x8318>
    4f7c:	d0 18 63 d8 	ldd  [ %g1 + 0x3d8 ], %o0
    4f80:	94 10 00 12 	mov  %l2, %o2
    4f84:	40 00 13 46 	call  9c9c <_section0+0x8a5c>
    4f88:	96 10 00 13 	mov  %l3, %o3
    4f8c:	80 a2 20 00 	cmp  %o0, 0
    4f90:	26 bf ff 7f 	bl,a   4d8c <_section0+0x3b4c>
    4f94:	b0 06 3f ff 	add  %i0, -1, %i0
    4f98:	b2 06 60 01 	inc  %i1
    4f9c:	d6 07 bf e4 	ld  [ %fp + -28 ], %o3
    4fa0:	80 a6 40 0b 	cmp  %i1, %o3
    4fa4:	06 bf ff d0 	bl  4ee4 <_section0+0x3ca4>
    4fa8:	19 23 80 29 	sethi  %hi(0x8e00a400), %o4
    4fac:	10 bf fe 88 	b  49cc <_section0+0x378c>
    4fb0:	d6 07 bf e0 	ld  [ %fp + -32 ], %o3
    4fb4:	40 00 13 53 	call  9d00 <_section0+0x8ac0>
    4fb8:	90 10 00 1d 	mov  %i5, %o0
    4fbc:	94 10 00 12 	mov  %l2, %o2
    4fc0:	40 00 12 ec 	call  9b70 <_section0+0x8930>
    4fc4:	96 10 00 13 	mov  %l3, %o3
    4fc8:	80 a0 00 08 	cmp  %g0, %o0
    4fcc:	10 bf fd 5a 	b  4534 <_section0+0x32f4>
    4fd0:	ba 67 60 00 	subx  %i5, 0, %i5
    4fd4:	98 23 00 1d 	sub  %o4, %i5, %o4
    4fd8:	9a 20 00 1d 	neg  %i5, %o5
    4fdc:	d8 27 bf ec 	st  %o4, [ %fp + -20 ]
    4fe0:	da 27 bf e8 	st  %o5, [ %fp + -24 ]
    4fe4:	10 bf fd 71 	b  45a8 <_section0+0x3368>
    4fe8:	c0 27 bf cc 	clr  [ %fp + -52 ]
    4fec:	e0 27 bf ec 	st  %l0, [ %fp + -20 ]
    4ff0:	10 bf fd 68 	b  4590 <_section0+0x3350>
    4ff4:	b8 10 20 00 	clr  %i4
    4ff8:	40 00 08 7e 	call  71f0 <_section0+0x5fb0>
    4ffc:	d0 07 a0 44 	ld  [ %fp + 0x44 ], %o0
    5000:	10 bf fe 59 	b  4964 <_section0+0x3724>
    5004:	d2 07 bf bc 	ld  [ %fp + -68 ], %o1
    5008:	14 bf fe f2 	bg  4bd0 <_section0+0x3990>
    500c:	c2 07 bf ec 	ld  [ %fp + -20 ], %g1
    5010:	b2 06 60 1c 	add  %i1, 0x1c, %i1
    5014:	da 07 bf ec 	ld  [ %fp + -20 ], %o5
    5018:	9a 03 40 19 	add  %o5, %i1, %o5
    501c:	b8 07 00 19 	add  %i4, %i1, %i4
    5020:	10 bf fe ea 	b  4bc8 <_section0+0x3988>
    5024:	da 27 bf ec 	st  %o5, [ %fp + -20 ]
    5028:	80 a3 20 00 	cmp  %o4, 0
    502c:	02 80 00 55 	be  5180 <_section0+0x3f40>
    5030:	b2 10 20 01 	mov  1, %i1
    5034:	80 a4 a0 00 	cmp  %l2, 0
    5038:	04 80 00 06 	ble  5050 <_section0+0x3e10>
    503c:	d2 07 bf bc 	ld  [ %fp + -68 ], %o1
    5040:	94 10 00 12 	mov  %l2, %o2
    5044:	40 00 0a 0d 	call  7878 <_section0+0x6638>
    5048:	d0 07 a0 44 	ld  [ %fp + 0x44 ], %o0
    504c:	d0 27 bf bc 	st  %o0, [ %fp + -68 ]
    5050:	da 07 bf bc 	ld  [ %fp + -68 ], %o5
    5054:	80 a4 20 00 	cmp  %l0, 0
    5058:	12 80 00 6b 	bne  5204 <_section0+0x3fc4>
    505c:	da 27 bf c0 	st  %o5, [ %fp + -64 ]
    5060:	b2 10 20 01 	mov  1, %i1
    5064:	92 10 00 1a 	mov  %i2, %o1
    5068:	7f ff fc 49 	call  418c <_section0+0x2f4c>
    506c:	d0 07 bf c4 	ld  [ %fp + -60 ], %o0
    5070:	a6 02 20 30 	add  %o0, 0x30, %l3
    5074:	d2 07 bf c0 	ld  [ %fp + -64 ], %o1
    5078:	40 00 0a 45 	call  798c <_section0+0x674c>
    507c:	d0 07 bf c4 	ld  [ %fp + -60 ], %o0
    5080:	a0 10 00 08 	mov  %o0, %l0
    5084:	d0 07 a0 44 	ld  [ %fp + 0x44 ], %o0
    5088:	92 10 00 1a 	mov  %i2, %o1
    508c:	40 00 0a 5a 	call  79f4 <_section0+0x67b4>
    5090:	d4 07 bf bc 	ld  [ %fp + -68 ], %o2
    5094:	c2 02 20 0c 	ld  [ %o0 + 0xc ], %g1
    5098:	a2 10 00 08 	mov  %o0, %l1
    509c:	80 a0 60 00 	cmp  %g1, 0
    50a0:	02 80 00 6a 	be  5248 <_section0+0x4008>
    50a4:	a4 10 20 01 	mov  1, %l2
    50a8:	92 10 00 11 	mov  %l1, %o1
    50ac:	40 00 08 51 	call  71f0 <_section0+0x5fb0>
    50b0:	d0 07 a0 44 	ld  [ %fp + 0x44 ], %o0
    50b4:	80 94 80 1b 	orcc  %l2, %i3, %g0
    50b8:	12 80 00 05 	bne  50cc <_section0+0x3e8c>
    50bc:	80 a4 20 00 	cmp  %l0, 0
    50c0:	80 8d 60 01 	btst  1, %l5
    50c4:	02 80 01 51 	be  5608 <_section0+0x43c8>
    50c8:	80 a4 20 00 	cmp  %l0, 0
    50cc:	06 80 01 25 	bl  5560 <_section0+0x4320>
    50d0:	80 94 00 1b 	orcc  %l0, %i3, %g0
    50d4:	12 80 00 05 	bne  50e8 <_section0+0x3ea8>
    50d8:	80 a4 a0 00 	cmp  %l2, 0
    50dc:	80 8d 60 01 	btst  1, %l5
    50e0:	02 80 01 20 	be  5560 <_section0+0x4320>
    50e4:	80 a4 a0 00 	cmp  %l2, 0
    50e8:	14 80 01 43 	bg  55f4 <_section0+0x43b4>
    50ec:	80 a4 e0 39 	cmp  %l3, 0x39
    50f0:	e6 2e 00 00 	stb  %l3, [ %i0 ]
    50f4:	d6 07 bf e4 	ld  [ %fp + -28 ], %o3
    50f8:	80 a6 40 0b 	cmp  %i1, %o3
    50fc:	02 80 00 2a 	be  51a4 <_section0+0x3f64>
    5100:	b0 06 20 01 	inc  %i0
    5104:	d2 07 bf c4 	ld  [ %fp + -60 ], %o1
    5108:	d0 07 a0 44 	ld  [ %fp + 0x44 ], %o0
    510c:	94 10 20 0a 	mov  0xa, %o2
    5110:	40 00 08 43 	call  721c <_section0+0x5fdc>
    5114:	96 10 20 00 	clr  %o3
    5118:	d8 07 bf c0 	ld  [ %fp + -64 ], %o4
    511c:	da 07 bf bc 	ld  [ %fp + -68 ], %o5
    5120:	80 a3 00 0d 	cmp  %o4, %o5
    5124:	02 80 00 4e 	be  525c <_section0+0x401c>
    5128:	d0 27 bf c4 	st  %o0, [ %fp + -60 ]
    512c:	d2 07 bf c0 	ld  [ %fp + -64 ], %o1
    5130:	94 10 20 0a 	mov  0xa, %o2
    5134:	96 10 20 00 	clr  %o3
    5138:	40 00 08 39 	call  721c <_section0+0x5fdc>
    513c:	d0 07 a0 44 	ld  [ %fp + 0x44 ], %o0
    5140:	d0 27 bf c0 	st  %o0, [ %fp + -64 ]
    5144:	d0 07 a0 44 	ld  [ %fp + 0x44 ], %o0
    5148:	d2 07 bf bc 	ld  [ %fp + -68 ], %o1
    514c:	94 10 20 0a 	mov  0xa, %o2
    5150:	40 00 08 33 	call  721c <_section0+0x5fdc>
    5154:	96 10 20 00 	clr  %o3
    5158:	d0 27 bf bc 	st  %o0, [ %fp + -68 ]
    515c:	10 bf ff c2 	b  5064 <_section0+0x3e24>
    5160:	b2 06 60 01 	inc  %i1
    5164:	d2 07 bf c4 	ld  [ %fp + -60 ], %o1
    5168:	d0 07 a0 44 	ld  [ %fp + 0x44 ], %o0
    516c:	94 10 20 0a 	mov  0xa, %o2
    5170:	40 00 08 2b 	call  721c <_section0+0x5fdc>
    5174:	96 10 20 00 	clr  %o3
    5178:	d0 27 bf c4 	st  %o0, [ %fp + -60 ]
    517c:	b2 06 60 01 	inc  %i1
    5180:	d0 07 bf c4 	ld  [ %fp + -60 ], %o0
    5184:	7f ff fc 02 	call  418c <_section0+0x2f4c>
    5188:	92 10 00 1a 	mov  %i2, %o1
    518c:	a6 02 20 30 	add  %o0, 0x30, %l3
    5190:	e6 2e 00 00 	stb  %l3, [ %i0 ]
    5194:	c2 07 bf e4 	ld  [ %fp + -28 ], %g1
    5198:	80 a6 40 01 	cmp  %i1, %g1
    519c:	06 bf ff f2 	bl  5164 <_section0+0x3f24>
    51a0:	b0 06 20 01 	inc  %i0
    51a4:	d2 07 bf c4 	ld  [ %fp + -60 ], %o1
    51a8:	94 10 20 01 	mov  1, %o2
    51ac:	40 00 09 b3 	call  7878 <_section0+0x6638>
    51b0:	d0 07 a0 44 	ld  [ %fp + 0x44 ], %o0
    51b4:	d0 27 bf c4 	st  %o0, [ %fp + -60 ]
    51b8:	40 00 09 f5 	call  798c <_section0+0x674c>
    51bc:	92 10 00 1a 	mov  %i2, %o1
    51c0:	a0 92 20 00 	orcc  %o0, 0, %l0
    51c4:	04 80 01 01 	ble  55c8 <_section0+0x4388>
    51c8:	80 a4 20 00 	cmp  %l0, 0
    51cc:	b0 06 3f ff 	add  %i0, -1, %i0
    51d0:	c2 4e 00 00 	ldsb  [ %i0 ], %g1
    51d4:	80 a0 60 39 	cmp  %g1, 0x39
    51d8:	12 80 00 b8 	bne  54b8 <_section0+0x4278>
    51dc:	d6 07 bf b8 	ld  [ %fp + -72 ], %o3
    51e0:	80 a6 00 0b 	cmp  %i0, %o3
    51e4:	32 bf ff fb 	bne,a   51d0 <_section0+0x3f90>
    51e8:	b0 06 3f ff 	add  %i0, -1, %i0
    51ec:	d8 07 bf b8 	ld  [ %fp + -72 ], %o4
    51f0:	82 10 20 31 	mov  0x31, %g1
    51f4:	c2 2b 00 00 	stb  %g1, [ %o4 ]
    51f8:	ba 07 60 01 	inc  %i5
    51fc:	10 bf fd c9 	b  4920 <_section0+0x36e0>
    5200:	b0 03 20 01 	add  %o4, 1, %i0
    5204:	d2 03 60 04 	ld  [ %o5 + 4 ], %o1
    5208:	40 00 07 d1 	call  714c <_section0+0x5f0c>
    520c:	d0 07 a0 44 	ld  [ %fp + 0x44 ], %o0
    5210:	c2 07 bf c0 	ld  [ %fp + -64 ], %g1
    5214:	d4 00 60 10 	ld  [ %g1 + 0x10 ], %o2
    5218:	d0 27 bf bc 	st  %o0, [ %fp + -68 ]
    521c:	95 2a a0 02 	sll  %o2, 2, %o2
    5220:	92 00 60 0c 	add  %g1, 0xc, %o1
    5224:	94 02 a0 08 	add  %o2, 8, %o2
    5228:	40 00 07 13 	call  6e74 <_section0+0x5c34>
    522c:	90 02 20 0c 	add  %o0, 0xc, %o0
    5230:	d0 07 a0 44 	ld  [ %fp + 0x44 ], %o0
    5234:	d2 07 bf bc 	ld  [ %fp + -68 ], %o1
    5238:	40 00 09 90 	call  7878 <_section0+0x6638>
    523c:	94 10 20 01 	mov  1, %o2
    5240:	10 bf ff 88 	b  5060 <_section0+0x3e20>
    5244:	d0 27 bf bc 	st  %o0, [ %fp + -68 ]
    5248:	d0 07 bf c4 	ld  [ %fp + -60 ], %o0
    524c:	40 00 09 d0 	call  798c <_section0+0x674c>
    5250:	92 10 00 11 	mov  %l1, %o1
    5254:	10 bf ff 95 	b  50a8 <_section0+0x3e68>
    5258:	a4 10 00 08 	mov  %o0, %l2
    525c:	92 10 00 0d 	mov  %o5, %o1
    5260:	d0 07 a0 44 	ld  [ %fp + 0x44 ], %o0
    5264:	94 10 20 0a 	mov  0xa, %o2
    5268:	40 00 07 ed 	call  721c <_section0+0x5fdc>
    526c:	96 10 20 00 	clr  %o3
    5270:	d0 27 bf bc 	st  %o0, [ %fp + -68 ]
    5274:	d0 27 bf c0 	st  %o0, [ %fp + -64 ]
    5278:	10 bf ff 7b 	b  5064 <_section0+0x3e24>
    527c:	b2 06 60 01 	inc  %i1
    5280:	9b 28 60 03 	sll  %g1, 3, %o5
    5284:	03 23 80 2a 	sethi  %hi(0x8e00a800), %g1
    5288:	82 10 60 90 	or  %g1, 0x90, %g1	! 8e00a890 <LEON_REG+0xe00a890>
    528c:	9a 03 40 01 	add  %o5, %g1, %o5
    5290:	96 10 00 09 	mov  %o1, %o3
    5294:	94 10 00 12 	mov  %l2, %o2
    5298:	40 00 10 c7 	call  95b4 <_section0+0x8374>
    529c:	d0 1b 7f f8 	ldd  [ %o5 + -8 ], %o0
    52a0:	a4 10 00 08 	mov  %o0, %l2
    52a4:	a6 10 00 09 	mov  %o1, %l3
    52a8:	10 80 00 0a 	b  52d0 <_section0+0x4090>
    52ac:	b2 10 20 01 	mov  1, %i1
    52b0:	96 10 00 09 	mov  %o1, %o3
    52b4:	03 23 80 29 	sethi  %hi(0x8e00a400), %g1
    52b8:	94 10 00 10 	mov  %l0, %o2
    52bc:	40 00 10 be 	call  95b4 <_section0+0x8374>
    52c0:	d0 18 63 e0 	ldd  [ %g1 + 0x3e0 ], %o0
    52c4:	a8 10 00 08 	mov  %o0, %l4
    52c8:	aa 10 00 09 	mov  %o1, %l5
    52cc:	b2 06 60 01 	inc  %i1
    52d0:	92 10 00 15 	mov  %l5, %o1
    52d4:	40 00 12 cc 	call  9e04 <_section0+0x8bc4>
    52d8:	90 10 00 14 	mov  %l4, %o0
    52dc:	40 00 12 89 	call  9d00 <_section0+0x8ac0>
    52e0:	b4 10 00 08 	mov  %o0, %i2
    52e4:	96 10 00 09 	mov  %o1, %o3
    52e8:	94 10 00 08 	mov  %o0, %o2
    52ec:	90 10 00 14 	mov  %l4, %o0
    52f0:	40 00 10 9a 	call  9558 <_section0+0x8318>
    52f4:	92 10 00 15 	mov  %l5, %o1
    52f8:	82 06 a0 30 	add  %i2, 0x30, %g1
    52fc:	c2 2e 00 00 	stb  %g1, [ %i0 ]
    5300:	d6 07 bf e4 	ld  [ %fp + -28 ], %o3
    5304:	a0 10 00 08 	mov  %o0, %l0
    5308:	a2 10 00 09 	mov  %o1, %l1
    530c:	80 a6 40 0b 	cmp  %i1, %o3
    5310:	12 bf ff e8 	bne  52b0 <_section0+0x4070>
    5314:	b0 06 20 01 	inc  %i0
    5318:	19 23 80 29 	sethi  %hi(0x8e00a400), %o4
    531c:	94 10 00 12 	mov  %l2, %o2
    5320:	96 10 00 13 	mov  %l3, %o3
    5324:	40 00 10 79 	call  9508 <_section0+0x82c8>
    5328:	d0 1b 23 f8 	ldd  [ %o4 + 0x3f8 ], %o0
    532c:	94 10 00 10 	mov  %l0, %o2
    5330:	40 00 12 5b 	call  9c9c <_section0+0x8a5c>
    5334:	96 10 00 11 	mov  %l1, %o3
    5338:	80 a2 20 00 	cmp  %o0, 0
    533c:	06 bf fe 93 	bl  4d88 <_section0+0x3b48>
    5340:	1b 23 80 29 	sethi  %hi(0x8e00a400), %o5
    5344:	94 10 00 12 	mov  %l2, %o2
    5348:	96 10 00 13 	mov  %l3, %o3
    534c:	40 00 10 83 	call  9558 <_section0+0x8318>
    5350:	d0 1b 63 f8 	ldd  [ %o5 + 0x3f8 ], %o0
    5354:	94 10 00 10 	mov  %l0, %o2
    5358:	40 00 12 1f 	call  9bd4 <_section0+0x8994>
    535c:	96 10 00 11 	mov  %l1, %o3
    5360:	80 a2 20 00 	cmp  %o0, 0
    5364:	24 bf fd 9a 	ble,a   49cc <_section0+0x378c>
    5368:	d6 07 bf e0 	ld  [ %fp + -32 ], %o3
    536c:	b0 06 3f ff 	add  %i0, -1, %i0
    5370:	c2 4e 00 00 	ldsb  [ %i0 ], %g1
    5374:	80 a0 60 30 	cmp  %g1, 0x30
    5378:	22 bf ff fe 	be,a   5370 <_section0+0x4130>
    537c:	b0 06 3f ff 	add  %i0, -1, %i0
    5380:	10 bf fd 7b 	b  496c <_section0+0x372c>
    5384:	b0 06 20 01 	inc  %i0
    5388:	a4 a0 00 1d 	subcc  %g0, %i5, %l2
    538c:	02 bf fd 24 	be  481c <_section0+0x35dc>
    5390:	da 07 bf d4 	ld  [ %fp + -44 ], %o5
    5394:	9a 0c a0 0f 	and  %l2, 0xf, %o5
    5398:	03 23 80 2a 	sethi  %hi(0x8e00a800), %g1
    539c:	9b 2b 60 03 	sll  %o5, 3, %o5
    53a0:	82 10 60 90 	or  %g1, 0x90, %g1
    53a4:	96 00 40 0d 	add  %g1, %o5, %o3
    53a8:	d0 1a c0 00 	ldd  [ %o3 ], %o0
    53ac:	94 10 00 14 	mov  %l4, %o2
    53b0:	40 00 10 81 	call  95b4 <_section0+0x8374>
    53b4:	96 10 00 15 	mov  %l5, %o3
    53b8:	a1 3c a0 04 	sra  %l2, 4, %l0
    53bc:	a8 10 00 08 	mov  %o0, %l4
    53c0:	80 a4 20 00 	cmp  %l0, 0
    53c4:	02 bf fd 15 	be  4818 <_section0+0x35d8>
    53c8:	aa 10 00 09 	mov  %o1, %l5
    53cc:	03 23 80 2a 	sethi  %hi(0x8e00a800), %g1
    53d0:	a4 10 60 68 	or  %g1, 0x68, %l2	! 8e00a868 <LEON_REG+0xe00a868>
    53d4:	80 8c 20 01 	btst  1, %l0
    53d8:	22 80 00 0c 	be,a   5408 <_section0+0x41c8>
    53dc:	a1 3c 20 01 	sra  %l0, 1, %l0
    53e0:	83 2e 60 03 	sll  %i1, 3, %g1
    53e4:	98 04 80 01 	add  %l2, %g1, %o4
    53e8:	94 10 00 14 	mov  %l4, %o2
    53ec:	96 10 00 15 	mov  %l5, %o3
    53f0:	40 00 10 71 	call  95b4 <_section0+0x8374>
    53f4:	d0 1b 00 00 	ldd  [ %o4 ], %o0
    53f8:	a8 10 00 08 	mov  %o0, %l4
    53fc:	aa 10 00 09 	mov  %o1, %l5
    5400:	a2 04 60 01 	inc  %l1
    5404:	a1 3c 20 01 	sra  %l0, 1, %l0
    5408:	80 a4 20 00 	cmp  %l0, 0
    540c:	12 bf ff f2 	bne  53d4 <_section0+0x4194>
    5410:	b2 06 60 01 	inc  %i1
    5414:	10 bf fd 02 	b  481c <_section0+0x35dc>
    5418:	da 07 bf d4 	ld  [ %fp + -44 ], %o5
    541c:	40 00 10 3b 	call  9508 <_section0+0x82c8>
    5420:	d4 1b 23 b0 	ldd  [ %o4 + 0x3b0 ], %o2
    5424:	10 bf fc 1b 	b  4490 <_section0+0x3250>
    5428:	03 3f 84 00 	sethi  %hi(0xfe100000), %g1
    542c:	40 00 09 58 	call  798c <_section0+0x674c>
    5430:	92 10 00 1a 	mov  %i2, %o1
    5434:	80 a2 20 00 	cmp  %o0, 0
    5438:	16 bf fd f9 	bge  4c1c <_section0+0x39dc>
    543c:	d6 07 bf e4 	ld  [ %fp + -28 ], %o3
    5440:	d2 07 bf c4 	ld  [ %fp + -60 ], %o1
    5444:	d0 07 a0 44 	ld  [ %fp + 0x44 ], %o0
    5448:	94 10 20 0a 	mov  0xa, %o2
    544c:	40 00 07 74 	call  721c <_section0+0x5fdc>
    5450:	96 10 20 00 	clr  %o3
    5454:	d8 07 bf d0 	ld  [ %fp + -48 ], %o4
    5458:	d0 27 bf c4 	st  %o0, [ %fp + -60 ]
    545c:	80 a3 20 00 	cmp  %o4, 0
    5460:	12 80 00 05 	bne  5474 <_section0+0x4234>
    5464:	ba 07 7f ff 	add  %i5, -1, %i5
    5468:	da 07 bf dc 	ld  [ %fp + -36 ], %o5
    546c:	10 bf fd eb 	b  4c18 <_section0+0x39d8>
    5470:	da 27 bf e4 	st  %o5, [ %fp + -28 ]
    5474:	d2 07 bf bc 	ld  [ %fp + -68 ], %o1
    5478:	d0 07 a0 44 	ld  [ %fp + 0x44 ], %o0
    547c:	94 10 20 0a 	mov  0xa, %o2
    5480:	40 00 07 67 	call  721c <_section0+0x5fdc>
    5484:	96 10 20 00 	clr  %o3
    5488:	da 07 bf dc 	ld  [ %fp + -36 ], %o5
    548c:	d0 27 bf bc 	st  %o0, [ %fp + -68 ]
    5490:	10 bf fd e2 	b  4c18 <_section0+0x39d8>
    5494:	da 27 bf e4 	st  %o5, [ %fp + -28 ]
    5498:	c2 06 a0 10 	ld  [ %i2 + 0x10 ], %g1
    549c:	83 28 60 02 	sll  %g1, 2, %g1
    54a0:	82 00 40 1a 	add  %g1, %i2, %g1
    54a4:	40 00 07 c7 	call  73c0 <_section0+0x6180>
    54a8:	d0 00 60 10 	ld  [ %g1 + 0x10 ], %o0
    54ac:	90 27 00 08 	sub  %i4, %o0, %o0
    54b0:	10 bf fd b9 	b  4b94 <_section0+0x3954>
    54b4:	b2 0a 20 1f 	and  %o0, 0x1f, %i1
    54b8:	c2 0e 00 00 	ldub  [ %i0 ], %g1
    54bc:	82 00 60 01 	inc  %g1
    54c0:	c2 2e 00 00 	stb  %g1, [ %i0 ]
    54c4:	10 bf fd 17 	b  4920 <_section0+0x36e0>
    54c8:	b0 06 20 01 	inc  %i0
    54cc:	d2 07 bf c4 	ld  [ %fp + -60 ], %o1
    54d0:	d4 07 bf e8 	ld  [ %fp + -24 ], %o2
    54d4:	40 00 08 9f 	call  7750 <_section0+0x6510>
    54d8:	d0 07 a0 44 	ld  [ %fp + 0x44 ], %o0
    54dc:	10 bf fd 9a 	b  4b44 <_section0+0x3904>
    54e0:	d0 27 bf c4 	st  %o0, [ %fp + -60 ]
    54e4:	80 a5 60 00 	cmp  %l5, 0
    54e8:	12 bf fd a7 	bne  4b84 <_section0+0x3944>
    54ec:	82 07 20 01 	add  %i4, 1, %g1
    54f0:	03 3f fc 00 	sethi  %hi(0xfff00000), %g1
    54f4:	80 ad 00 01 	andncc  %l4, %g1, %g0
    54f8:	12 bf fd a3 	bne  4b84 <_section0+0x3944>
    54fc:	82 07 20 01 	add  %i4, 1, %g1
    5500:	03 1f fc 00 	sethi  %hi(0x7ff00000), %g1
    5504:	80 88 40 14 	btst  %g1, %l4
    5508:	02 bf fd 9f 	be  4b84 <_section0+0x3944>
    550c:	82 07 20 01 	add  %i4, 1, %g1
    5510:	da 07 bf ec 	ld  [ %fp + -20 ], %o5
    5514:	9a 03 60 01 	inc  %o5
    5518:	da 27 bf ec 	st  %o5, [ %fp + -20 ]
    551c:	b8 07 20 01 	inc  %i4
    5520:	10 bf fd 98 	b  4b80 <_section0+0x3940>
    5524:	a0 10 20 01 	mov  1, %l0
    5528:	10 bf fc c7 	b  4844 <_section0+0x3604>
    552c:	9a 10 20 01 	mov  1, %o5
    5530:	10 bf ff e9 	b  54d4 <_section0+0x4294>
    5534:	94 10 00 10 	mov  %l0, %o2
    5538:	10 bf fe 50 	b  4e78 <_section0+0x3c38>
    553c:	da 27 a0 54 	st  %o5, [ %fp + 0x54 ]
    5540:	c2 07 bf c8 	ld  [ %fp + -56 ], %g1
    5544:	80 a0 60 00 	cmp  %g1, 0
    5548:	12 bf fe 3e 	bne  4e40 <_section0+0x3c00>
    554c:	b2 02 24 33 	add  %o0, 0x433, %i1
    5550:	9a 10 20 36 	mov  0x36, %o5
    5554:	c2 07 bf f0 	ld  [ %fp + -16 ], %g1
    5558:	10 bf fe 3a 	b  4e40 <_section0+0x3c00>
    555c:	b2 23 40 01 	sub  %o5, %g1, %i1
    5560:	80 a4 a0 00 	cmp  %l2, 0
    5564:	04 80 00 0f 	ble  55a0 <_section0+0x4360>
    5568:	d2 07 bf c4 	ld  [ %fp + -60 ], %o1
    556c:	94 10 20 01 	mov  1, %o2
    5570:	40 00 08 c2 	call  7878 <_section0+0x6638>
    5574:	d0 07 a0 44 	ld  [ %fp + 0x44 ], %o0
    5578:	d0 27 bf c4 	st  %o0, [ %fp + -60 ]
    557c:	40 00 09 04 	call  798c <_section0+0x674c>
    5580:	92 10 00 1a 	mov  %i2, %o1
    5584:	a4 92 20 00 	orcc  %o0, 0, %l2
    5588:	04 80 00 28 	ble  5628 <_section0+0x43e8>
    558c:	80 a4 a0 00 	cmp  %l2, 0
    5590:	a6 04 e0 01 	inc  %l3
    5594:	80 a4 e0 3a 	cmp  %l3, 0x3a
    5598:	02 80 00 06 	be  55b0 <_section0+0x4370>
    559c:	82 10 20 39 	mov  0x39, %g1
    55a0:	e6 2e 00 00 	stb  %l3, [ %i0 ]
    55a4:	10 bf fc df 	b  4920 <_section0+0x36e0>
    55a8:	b0 06 20 01 	inc  %i0
    55ac:	82 10 20 39 	mov  0x39, %g1
    55b0:	c2 2e 00 00 	stb  %g1, [ %i0 ]
    55b4:	10 bf ff 06 	b  51cc <_section0+0x3f8c>
    55b8:	b0 06 20 01 	inc  %i0
    55bc:	a4 20 40 19 	sub  %g1, %i1, %l2
    55c0:	10 bf fe 20 	b  4e40 <_section0+0x3c00>
    55c4:	b2 10 20 00 	clr  %i1
    55c8:	12 80 00 05 	bne  55dc <_section0+0x439c>
    55cc:	b0 06 3f ff 	add  %i0, -1, %i0
    55d0:	80 8c e0 01 	btst  1, %l3
    55d4:	12 bf fe ff 	bne  51d0 <_section0+0x3f90>
    55d8:	01 00 00 00 	nop 
    55dc:	c2 4e 00 00 	ldsb  [ %i0 ], %g1
    55e0:	80 a0 60 30 	cmp  %g1, 0x30
    55e4:	22 bf ff fe 	be,a   55dc <_section0+0x439c>
    55e8:	b0 06 3f ff 	add  %i0, -1, %i0
    55ec:	10 bf fc cd 	b  4920 <_section0+0x36e0>
    55f0:	b0 06 20 01 	inc  %i0
    55f4:	02 bf ff ee 	be  55ac <_section0+0x436c>
    55f8:	82 04 e0 01 	add  %l3, 1, %g1
    55fc:	c2 2e 00 00 	stb  %g1, [ %i0 ]
    5600:	10 bf fc c8 	b  4920 <_section0+0x36e0>
    5604:	b0 06 20 01 	inc  %i0
    5608:	80 a4 e0 39 	cmp  %l3, 0x39
    560c:	02 bf ff e8 	be  55ac <_section0+0x436c>
    5610:	83 3c 20 1f 	sra  %l0, 0x1f, %g1
    5614:	82 20 40 10 	sub  %g1, %l0, %g1
    5618:	83 30 60 1f 	srl  %g1, 0x1f, %g1
    561c:	a6 04 c0 01 	add  %l3, %g1, %l3
    5620:	10 bf ff e1 	b  55a4 <_section0+0x4364>
    5624:	e6 2e 00 00 	stb  %l3, [ %i0 ]
    5628:	32 bf ff df 	bne,a   55a4 <_section0+0x4364>
    562c:	e6 2e 00 00 	stb  %l3, [ %i0 ]
    5630:	80 8c e0 01 	btst  1, %l3
    5634:	32 bf ff d8 	bne,a   5594 <_section0+0x4354>
    5638:	a6 04 e0 01 	inc  %l3
    563c:	10 bf ff da 	b  55a4 <_section0+0x4364>
    5640:	e6 2e 00 00 	stb  %l3, [ %i0 ]
    5644:	81 c7 e0 08 	ret 
    5648:	91 e8 00 01 	restore  %g0, %g1, %o0
    564c:	9d e3 bf 98 	save  %sp, -104, %sp
    5650:	80 a6 20 00 	cmp  %i0, 0
    5654:	02 80 00 48 	be  5774 <_section0+0x4534>
    5658:	03 23 80 29 	sethi  %hi(0x8e00a400), %g1
    565c:	c2 16 20 0c 	lduh  [ %i0 + 0xc ], %g1
    5660:	80 88 62 00 	btst  0x200, %g1
    5664:	02 80 00 3e 	be  575c <_section0+0x451c>
    5668:	01 00 00 00 	nop 
    566c:	03 23 c0 01 	sethi  %hi(0x8f000400), %g1
    5670:	d0 00 61 60 	ld  [ %g1 + 0x160 ], %o0	! 8f000560 <LEON_REG+0xf000560>
    5674:	80 a2 20 00 	cmp  %o0, 0
    5678:	32 80 00 26 	bne,a   5710 <_section0+0x44d0>
    567c:	c2 02 20 38 	ld  [ %o0 + 0x38 ], %g1
    5680:	da 16 20 0c 	lduh  [ %i0 + 0xc ], %o5
    5684:	83 2b 60 10 	sll  %o5, 0x10, %g1
    5688:	91 38 60 10 	sra  %g1, 0x10, %o0
    568c:	80 8a 20 08 	btst  8, %o0
    5690:	22 80 00 2c 	be,a   5740 <_section0+0x4500>
    5694:	83 30 60 10 	srl  %g1, 0x10, %g1
    5698:	e0 06 20 10 	ld  [ %i0 + 0x10 ], %l0
    569c:	80 a4 20 00 	cmp  %l0, 0
    56a0:	02 80 00 27 	be  573c <_section0+0x44fc>
    56a4:	80 8a 20 03 	btst  3, %o0
    56a8:	c2 06 00 00 	ld  [ %i0 ], %g1
    56ac:	b2 20 40 10 	sub  %g1, %l0, %i1
    56b0:	e0 26 00 00 	st  %l0, [ %i0 ]
    56b4:	02 80 00 2e 	be  576c <_section0+0x452c>
    56b8:	82 10 20 00 	clr  %g1
    56bc:	80 a6 60 00 	cmp  %i1, 0
    56c0:	04 80 00 0f 	ble  56fc <_section0+0x44bc>
    56c4:	c2 26 20 08 	st  %g1, [ %i0 + 8 ]
    56c8:	92 10 00 10 	mov  %l0, %o1
    56cc:	94 10 00 19 	mov  %i1, %o2
    56d0:	c2 06 20 24 	ld  [ %i0 + 0x24 ], %g1
    56d4:	9f c0 40 00 	call  %g1
    56d8:	d0 06 20 1c 	ld  [ %i0 + 0x1c ], %o0
    56dc:	b2 26 40 08 	sub  %i1, %o0, %i1
    56e0:	80 a2 20 00 	cmp  %o0, 0
    56e4:	04 80 00 28 	ble  5784 <_section0+0x4544>
    56e8:	a0 04 00 08 	add  %l0, %o0, %l0
    56ec:	80 a6 60 00 	cmp  %i1, 0
    56f0:	14 bf ff f7 	bg  56cc <_section0+0x448c>
    56f4:	92 10 00 10 	mov  %l0, %o1
    56f8:	da 16 20 0c 	lduh  [ %i0 + 0xc ], %o5
    56fc:	80 8b 62 00 	btst  0x200, %o5
    5700:	02 80 00 13 	be  574c <_section0+0x450c>
    5704:	01 00 00 00 	nop 
    5708:	10 80 00 29 	b  57ac <_section0+0x456c>
    570c:	b0 10 20 00 	clr  %i0	! 0 <_start_svt_real>
    5710:	80 a0 60 00 	cmp  %g1, 0
    5714:	32 bf ff dc 	bne,a   5684 <_section0+0x4444>
    5718:	da 16 20 0c 	lduh  [ %i0 + 0xc ], %o5
    571c:	40 00 00 62 	call  58a4 <_section0+0x4664>
    5720:	01 00 00 00 	nop 
    5724:	da 16 20 0c 	lduh  [ %i0 + 0xc ], %o5
    5728:	83 2b 60 10 	sll  %o5, 0x10, %g1
    572c:	91 38 60 10 	sra  %g1, 0x10, %o0
    5730:	80 8a 20 08 	btst  8, %o0
    5734:	32 bf ff da 	bne,a   569c <_section0+0x445c>
    5738:	e0 06 20 10 	ld  [ %i0 + 0x10 ], %l0
    573c:	83 30 60 10 	srl  %g1, 0x10, %g1
    5740:	80 88 62 00 	btst  0x200, %g1
    5744:	32 80 00 1a 	bne,a   57ac <_section0+0x456c>
    5748:	b0 10 20 00 	clr  %i0
    574c:	40 00 14 c7 	call  aa68 <_section0+0x9828>
    5750:	90 06 20 58 	add  %i0, 0x58, %o0
    5754:	10 80 00 16 	b  57ac <_section0+0x456c>
    5758:	b0 10 20 00 	clr  %i0
    575c:	40 00 14 ab 	call  aa08 <_section0+0x97c8>
    5760:	90 06 20 58 	add  %i0, 0x58, %o0
    5764:	10 bf ff c3 	b  5670 <_section0+0x4430>
    5768:	03 23 c0 01 	sethi  %hi(0x8f000400), %g1
    576c:	10 bf ff d4 	b  56bc <_section0+0x447c>
    5770:	c2 06 20 14 	ld  [ %i0 + 0x14 ], %g1
    5774:	33 23 80 11 	sethi  %hi(0x8e004400), %i1
    5778:	f0 00 62 d0 	ld  [ %g1 + 0x2d0 ], %i0
    577c:	40 00 02 d3 	call  62c8 <_section0+0x5088>
    5780:	93 ee 60 0c 	restore  %i1, 0xc, %o1
    5784:	c2 16 20 0c 	lduh  [ %i0 + 0xc ], %g1
    5788:	82 10 60 40 	or  %g1, 0x40, %g1
    578c:	80 88 62 00 	btst  0x200, %g1
    5790:	02 80 00 04 	be  57a0 <_section0+0x4560>
    5794:	c2 36 20 0c 	sth  %g1, [ %i0 + 0xc ]
    5798:	10 80 00 05 	b  57ac <_section0+0x456c>
    579c:	b0 10 3f ff 	mov  -1, %i0
    57a0:	40 00 14 b2 	call  aa68 <_section0+0x9828>
    57a4:	90 06 20 58 	add  %i0, 0x58, %o0
    57a8:	b0 10 3f ff 	mov  -1, %i0
    57ac:	81 c7 e0 08 	ret 
    57b0:	81 e8 00 00 	restore 
    57b4:	9d e3 bf 88 	save  %sp, -120, %sp
    57b8:	03 23 80 1c 	sethi  %hi(0x8e007000), %g1
    57bc:	1b 23 80 1c 	sethi  %hi(0x8e007000), %o5
    57c0:	82 10 61 f8 	or  %g1, 0x1f8, %g1
    57c4:	9a 13 62 44 	or  %o5, 0x244, %o5
    57c8:	c2 26 20 20 	st  %g1, [ %i0 + 0x20 ]
    57cc:	da 26 20 24 	st  %o5, [ %i0 + 0x24 ]
    57d0:	03 23 80 1c 	sethi  %hi(0x8e007000), %g1
    57d4:	1b 23 80 1c 	sethi  %hi(0x8e007000), %o5
    57d8:	a0 07 bf e8 	add  %fp, -24, %l0
    57dc:	82 10 62 bc 	or  %g1, 0x2bc, %g1
    57e0:	9a 13 63 10 	or  %o5, 0x310, %o5
    57e4:	c2 26 20 28 	st  %g1, [ %i0 + 0x28 ]
    57e8:	da 26 20 2c 	st  %o5, [ %i0 + 0x2c ]
    57ec:	f2 36 20 0c 	sth  %i1, [ %i0 + 0xc ]
    57f0:	f4 36 20 0e 	sth  %i2, [ %i0 + 0xe ]
    57f4:	c0 26 00 00 	clr  [ %i0 ]
    57f8:	c0 26 20 04 	clr  [ %i0 + 4 ]
    57fc:	c0 26 20 08 	clr  [ %i0 + 8 ]
    5800:	c0 26 20 10 	clr  [ %i0 + 0x10 ]
    5804:	c0 26 20 14 	clr  [ %i0 + 0x14 ]
    5808:	c0 26 20 18 	clr  [ %i0 + 0x18 ]
    580c:	f0 26 20 1c 	st  %i0, [ %i0 + 0x1c ]
    5810:	40 00 14 a2 	call  aa98 <_section0+0x9858>
    5814:	90 10 00 10 	mov  %l0, %o0
    5818:	92 10 20 01 	mov  1, %o1
    581c:	40 00 14 b7 	call  aaf8 <_section0+0x98b8>
    5820:	90 10 00 10 	mov  %l0, %o0
    5824:	90 06 20 58 	add  %i0, 0x58, %o0
    5828:	40 00 14 5f 	call  a9a4 <_section0+0x9764>
    582c:	92 10 00 10 	mov  %l0, %o1
